 0x000000000000000e (SONAME)             Библиотека soname: [libsass.so]
base64_encode_block T
base64_encode_blockend T
base64_encode_value T
base64_init_encodestate T
libsass_language_version T
libsass_version T
sass2scss T
sass2scss_version T
sass_alloc_memory T
sass_boolean_get_value T
sass_boolean_set_value T
sass_callee_get_column T
sass_callee_get_env T
sass_callee_get_line T
sass_callee_get_name T
sass_callee_get_path T
sass_callee_get_type T
sass_clone_value T
sass_color_get_a T
sass_color_get_b T
sass_color_get_g T
sass_color_get_r T
sass_color_set_a T
sass_color_set_b T
sass_color_set_g T
sass_color_set_r T
sass_compile_data_context T
sass_compile_file_context T
sass_compiler_execute T
sass_compiler_find_file T
sass_compiler_find_include T
sass_compiler_get_callee_entry T
sass_compiler_get_callee_stack_size T
sass_compiler_get_context T
sass_compiler_get_import_entry T
sass_compiler_get_import_stack_size T
sass_compiler_get_last_callee T
sass_compiler_get_last_import T
sass_compiler_get_options T
sass_compiler_get_state T
sass_compiler_parse T
sass_context_get_error_column T
sass_context_get_error_file T
sass_context_get_error_json T
sass_context_get_error_line T
sass_context_get_error_message T
sass_context_get_error_src T
sass_context_get_error_status T
sass_context_get_error_text T
sass_context_get_included_files T
sass_context_get_included_files_size T
sass_context_get_options T
sass_context_get_output_string T
sass_context_get_source_map_string T
sass_context_take_error_file T
sass_context_take_error_json T
sass_context_take_error_message T
sass_context_take_error_src T
sass_context_take_error_text T
sass_context_take_included_files T
sass_context_take_output_string T
sass_context_take_source_map_string T
sass_copy_c_string T
sass_data_context_get_context T
sass_data_context_get_options T
sass_data_context_set_options T
sass_delete_compiler T
sass_delete_data_context T
sass_delete_file_context T
sass_delete_function T
sass_delete_function_list T
sass_delete_import T
sass_delete_importer T
sass_delete_importer_list T
sass_delete_import_list T
sass_delete_options T
sass_delete_value T
sass_env_get_global T
sass_env_get_lexical T
sass_env_get_local T
sass_env_set_global T
sass_env_set_lexical T
sass_env_set_local T
sass_error_get_message T
sass_error_set_message T
sass_file_context_get_context T
sass_file_context_get_options T
sass_file_context_set_options T
sass_find_file T
sass_find_include T
sass_free_memory T
sass_function_get_cookie T
sass_function_get_function T
sass_function_get_list_entry T
sass_function_get_signature T
sass_function_set_list_entry T
sass_importer_get_cookie T
sass_importer_get_function T
sass_importer_get_list_entry T
sass_importer_get_priority T
sass_importer_set_list_entry T
sass_import_get_abs_path T
sass_import_get_error_column T
sass_import_get_error_line T
sass_import_get_error_message T
sass_import_get_imp_path T
sass_import_get_list_entry T
sass_import_get_source T
sass_import_get_srcmap T
sass_import_set_error T
sass_import_set_list_entry T
sass_import_take_source T
sass_import_take_srcmap T
sass_list_get_is_bracketed T
sass_list_get_length T
sass_list_get_separator T
sass_list_get_value T
sass_list_set_is_bracketed T
sass_list_set_separator T
sass_list_set_value T
sass_make_boolean T
sass_make_color T
sass_make_data_compiler T
sass_make_data_context T
sass_make_error T
sass_make_file_compiler T
sass_make_file_context T
sass_make_function T
sass_make_function_list T
sass_make_import T
sass_make_import_entry T
sass_make_importer T
sass_make_importer_list T
sass_make_import_list T
sass_make_list T
sass_make_map T
sass_make_null T
sass_make_number T
sass_make_options T
sass_make_qstring T
sass_make_string T
sass_make_warning T
sass_map_get_key T
sass_map_get_length T
sass_map_get_value T
sass_map_set_key T
sass_map_set_value T
sass_number_get_unit T
sass_number_get_value T
sass_number_set_unit T
sass_number_set_value T
sass_option_get_c_functions T
sass_option_get_c_headers T
sass_option_get_c_importers T
sass_option_get_include_path T
sass_option_get_include_path_size T
sass_option_get_indent T
sass_option_get_input_path T
sass_option_get_is_indented_syntax_src T
sass_option_get_linefeed T
sass_option_get_omit_source_map_url T
sass_option_get_output_path T
sass_option_get_output_style T
sass_option_get_plugin_path T
sass_option_get_plugin_path_size T
sass_option_get_precision T
sass_option_get_source_comments T
sass_option_get_source_map_contents T
sass_option_get_source_map_embed T
sass_option_get_source_map_file T
sass_option_get_source_map_file_urls T
sass_option_get_source_map_root T
sass_option_push_include_path T
sass_option_push_plugin_path T
sass_option_set_c_functions T
sass_option_set_c_headers T
sass_option_set_c_importers T
sass_option_set_include_path T
sass_option_set_indent T
sass_option_set_input_path T
sass_option_set_is_indented_syntax_src T
sass_option_set_linefeed T
sass_option_set_omit_source_map_url T
sass_option_set_output_path T
sass_option_set_output_style T
sass_option_set_plugin_path T
sass_option_set_precision T
sass_option_set_source_comments T
sass_option_set_source_map_contents T
sass_option_set_source_map_embed T
sass_option_set_source_map_file T
sass_option_set_source_map_file_urls T
sass_option_set_source_map_root T
sass_string_get_value T
sass_string_is_quoted T
sass_string_quote T
sass_string_set_quoted T
sass_string_set_value T
sass_string_unquote T
sass_value_get_tag T
sass_value_is_boolean T
sass_value_is_color T
sass_value_is_error T
sass_value_is_list T
sass_value_is_map T
sass_value_is_null T
sass_value_is_number T
sass_value_is_string T
sass_value_is_warning T
sass_value_op T
sass_value_stringify T
sass_warning_get_message T
sass_warning_set_message T
_Z10json_checkPK8JsonNodePc T
_Z11json_decodePKc T
_Z11json_deleteP8JsonNode T
_Z11json_encodePK8JsonNode T
_Z11json_mkboolb T
_Z11json_mknullv T
_Z12json_mkarrayv T
_Z13json_mknumberd T
_Z13json_mkobjectv T
_Z13json_mkstringPKc T
_Z13json_validatePKc T
_Z14json_stringifyPK8JsonNodePKc T
_Z16json_find_memberP8JsonNodePKc T
_Z16json_first_childPK8JsonNode T
_Z17json_find_elementP8JsonNodei T
_Z18json_append_memberP8JsonNodePKcS0_ T
_Z18json_encode_stringPKc T
_Z19json_append_elementP8JsonNodeS0_ T
_Z19json_prepend_memberP8JsonNodePKcS0_ T
_Z20json_prepend_elementP8JsonNodeS0_ T
_Z23json_remove_from_parentP8JsonNode T
_ZGVZN4utf815replace_invalidIPKcSt20back_insert_iteratorINSt7__cxx1112basic_stringIcSt11char_traitsIcESaIcEEEEEET0_T_SC_SB_E18replacement_marker u
_ZN4Sass10Assignment7performEPNS_9OperationINSt7__cxx1112basic_stringIcSt11char_traitsIcESaIcEEEEE W
_ZN4Sass10Assignment7performEPNS_9OperationIP10Sass_ValueEE W
_ZN4Sass10Assignment7performEPNS_9OperationIPNS_10ExpressionEEE W
_ZN4Sass10Assignment7performEPNS_9OperationIPNS_17SupportsConditionEEE W
_ZN4Sass10Assignment7performEPNS_9OperationIPNS_5ValueEEE W
_ZN4Sass10Assignment7performEPNS_9OperationIPNS_8AST_NodeEEE W
_ZN4Sass10Assignment7performEPNS_9OperationIPNS_8SelectorEEE W
_ZN4Sass10Assignment7performEPNS_9OperationIPNS_9StatementEEE W
_ZN4Sass10Assignment7performEPNS_9OperationIvEE W
_ZN4Sass10AssignmentC1ENS_10SourceSpanENSt7__cxx1112basic_stringIcSt11char_traitsIcESaIcEEENS_10SharedImplINS_10ExpressionEEEbb T
_ZN4Sass10AssignmentC1EPKS0_ T
_ZN4Sass10AssignmentC2ENS_10SourceSpanENSt7__cxx1112basic_stringIcSt11char_traitsIcESaIcEEENS_10SharedImplINS_10ExpressionEEEbb T
_ZN4Sass10AssignmentC2EPKS0_ T
_ZN4Sass10AssignmentD0Ev W
_ZN4Sass10AssignmentD1Ev W
_ZN4Sass10AssignmentD2Ev W
_ZN4Sass10AtRootRule12exclude_nodeENS_10SharedImplINS_9StatementEEE T
_ZN4Sass10AtRootRule7bubblesEv T
_ZN4Sass10AtRootRule7performEPNS_9OperationINSt7__cxx1112basic_stringIcSt11char_traitsIcESaIcEEEEE W
_ZN4Sass10AtRootRule7performEPNS_9OperationIP10Sass_ValueEE W
_ZN4Sass10AtRootRule7performEPNS_9OperationIPNS_10ExpressionEEE W
_ZN4Sass10AtRootRule7performEPNS_9OperationIPNS_17SupportsConditionEEE W
_ZN4Sass10AtRootRule7performEPNS_9OperationIPNS_5ValueEEE W
_ZN4Sass10AtRootRule7performEPNS_9OperationIPNS_8AST_NodeEEE W
_ZN4Sass10AtRootRule7performEPNS_9OperationIPNS_8SelectorEEE W
_ZN4Sass10AtRootRule7performEPNS_9OperationIPNS_9StatementEEE W
_ZN4Sass10AtRootRule7performEPNS_9OperationIvEE W
_ZN4Sass10AtRootRuleC1ENS_10SourceSpanENS_10SharedImplINS_5BlockEEENS2_INS_13At_Root_QueryEEE T
_ZN4Sass10AtRootRuleC1EPKS0_ T
_ZN4Sass10AtRootRuleC2ENS_10SourceSpanENS_10SharedImplINS_5BlockEEENS2_INS_13At_Root_QueryEEE T
_ZN4Sass10AtRootRuleC2EPKS0_ T
_ZN4Sass10AtRootRuleD0Ev W
_ZN4Sass10AtRootRuleD1Ev W
_ZN4Sass10AtRootRuleD2Ev W
_ZN4Sass10Color_HSLA6toHSLAEv W
_ZN4Sass10Color_HSLA6toRGBAEv W
_ZN4Sass10Color_HSLA7performEPNS_9OperationINSt7__cxx1112basic_stringIcSt11char_traitsIcESaIcEEEEE W
_ZN4Sass10Color_HSLA7performEPNS_9OperationIP10Sass_ValueEE W
_ZN4Sass10Color_HSLA7performEPNS_9OperationIPNS_10ExpressionEEE W
_ZN4Sass10Color_HSLA7performEPNS_9OperationIPNS_17SupportsConditionEEE W
_ZN4Sass10Color_HSLA7performEPNS_9OperationIPNS_5ValueEEE W
_ZN4Sass10Color_HSLA7performEPNS_9OperationIPNS_8AST_NodeEEE W
_ZN4Sass10Color_HSLA7performEPNS_9OperationIPNS_8SelectorEEE W
_ZN4Sass10Color_HSLA7performEPNS_9OperationIPNS_9StatementEEE W
_ZN4Sass10Color_HSLA7performEPNS_9OperationIvEE W
_ZN4Sass10Color_HSLAC1ENS_10SourceSpanEddddNSt7__cxx1112basic_stringIcSt11char_traitsIcESaIcEEE T
_ZN4Sass10Color_HSLAC1EPKS0_ T
_ZN4Sass10Color_HSLAC2ENS_10SourceSpanEddddNSt7__cxx1112basic_stringIcSt11char_traitsIcESaIcEEE T
_ZN4Sass10Color_HSLAC2EPKS0_ T
_ZN4Sass10Color_HSLAD0Ev W
_ZN4Sass10Color_HSLAD1Ev W
_ZN4Sass10Color_HSLAD2Ev W
_ZN4Sass10ColorNames10aquamarineE R
_ZN4Sass10ColorNames10bluevioletE R
_ZN4Sass10ColorNames10chartreuseE R
_ZN4Sass10ColorNames10darkorangeE R
_ZN4Sass10ColorNames10darkorchidE R
_ZN4Sass10ColorNames10darksalmonE R
_ZN4Sass10ColorNames10darkvioletE R
_ZN4Sass10ColorNames10dodgerblueE R
_ZN4Sass10ColorNames10ghostwhiteE R
_ZN4Sass10ColorNames10lightcoralE R
_ZN4Sass10ColorNames10lightgreenE R
_ZN4Sass10ColorNames10mediumblueE R
_ZN4Sass10ColorNames10papayawhipE R
_ZN4Sass10ColorNames10powderblueE R
_ZN4Sass10ColorNames10sandybrownE R
_ZN4Sass10ColorNames10whitesmokeE R
_ZN4Sass10ColorNames11darkmagentaE R
_ZN4Sass10ColorNames11deepskyblueE R
_ZN4Sass10ColorNames11floralwhiteE R
_ZN4Sass10ColorNames11forestgreenE R
_ZN4Sass10ColorNames11greenyellowE R
_ZN4Sass10ColorNames11lightsalmonE R
_ZN4Sass10ColorNames11lightyellowE R
_ZN4Sass10ColorNames11navajowhiteE R
_ZN4Sass10ColorNames11saddlebrownE R
_ZN4Sass10ColorNames11springgreenE R
_ZN4Sass10ColorNames11transparentE R
_ZN4Sass10ColorNames11yellowgreenE R
_ZN4Sass10ColorNames12antiquewhiteE R
_ZN4Sass10ColorNames12darkseagreenE R
_ZN4Sass10ColorNames12lemonchiffonE R
_ZN4Sass10ColorNames12lightskyblueE R
_ZN4Sass10ColorNames12mediumorchidE R
_ZN4Sass10ColorNames12mediumpurpleE R
_ZN4Sass10ColorNames12midnightblueE R
_ZN4Sass10ColorNames13darkgoldenrodE R
_ZN4Sass10ColorNames13darkslateblueE R
_ZN4Sass10ColorNames13darkslategrayE R
_ZN4Sass10ColorNames13darkslategreyE R
_ZN4Sass10ColorNames13darkturquoiseE R
_ZN4Sass10ColorNames13lavenderblushE R
_ZN4Sass10ColorNames13lightseagreenE R
_ZN4Sass10ColorNames13palegoldenrodE R
_ZN4Sass10ColorNames13paleturquoiseE R
_ZN4Sass10ColorNames13palevioletredE R
_ZN4Sass10ColorNames13rebeccapurpleE R
_ZN4Sass10ColorNames14blanchedalmondE R
_ZN4Sass10ColorNames14cornflowerblueE R
_ZN4Sass10ColorNames14darkolivegreenE R
_ZN4Sass10ColorNames14lightslategrayE R
_ZN4Sass10ColorNames14lightslategreyE R
_ZN4Sass10ColorNames14lightsteelblueE R
_ZN4Sass10ColorNames14mediumseagreenE R
_ZN4Sass10ColorNames15mediumslateblueE R
_ZN4Sass10ColorNames15mediumturquoiseE R
_ZN4Sass10ColorNames15mediumvioletredE R
_ZN4Sass10ColorNames16mediumaquamarineE R
_ZN4Sass10ColorNames17mediumspringgreenE R
_ZN4Sass10ColorNames20lightgoldenrodyellowE R
_ZN4Sass10ColorNames3redE R
_ZN4Sass10ColorNames3tanE R
_ZN4Sass10ColorNames4aquaE R
_ZN4Sass10ColorNames4blueE R
_ZN4Sass10ColorNames4cyanE R
_ZN4Sass10ColorNames4goldE R
_ZN4Sass10ColorNames4grayE R
_ZN4Sass10ColorNames4greyE R
_ZN4Sass10ColorNames4limeE R
_ZN4Sass10ColorNames4navyE R
_ZN4Sass10ColorNames4peruE R
_ZN4Sass10ColorNames4pinkE R
_ZN4Sass10ColorNames4plumE R
_ZN4Sass10ColorNames4snowE R
_ZN4Sass10ColorNames4tealE R
_ZN4Sass10ColorNames5azureE R
_ZN4Sass10ColorNames5beigeE R
_ZN4Sass10ColorNames5blackE R
_ZN4Sass10ColorNames5brownE R
_ZN4Sass10ColorNames5coralE R
_ZN4Sass10ColorNames5greenE R
_ZN4Sass10ColorNames5ivoryE R
_ZN4Sass10ColorNames5khakiE R
_ZN4Sass10ColorNames5linenE R
_ZN4Sass10ColorNames5oliveE R
_ZN4Sass10ColorNames5wheatE R
_ZN4Sass10ColorNames5whiteE R
_ZN4Sass10ColorNames6bisqueE R
_ZN4Sass10ColorNames6indigoE R
_ZN4Sass10ColorNames6maroonE R
_ZN4Sass10ColorNames6orangeE R
_ZN4Sass10ColorNames6orchidE R
_ZN4Sass10ColorNames6purpleE R
_ZN4Sass10ColorNames6salmonE R
_ZN4Sass10ColorNames6siennaE R
_ZN4Sass10ColorNames6silverE R
_ZN4Sass10ColorNames6tomatoE R
_ZN4Sass10ColorNames6violetE R
_ZN4Sass10ColorNames6yellowE R
_ZN4Sass10ColorNames7crimsonE R
_ZN4Sass10ColorNames7darkredE R
_ZN4Sass10ColorNames7dimgrayE R
_ZN4Sass10ColorNames7dimgreyE R
_ZN4Sass10ColorNames7fuchsiaE R
_ZN4Sass10ColorNames7hotpinkE R
_ZN4Sass10ColorNames7magentaE R
_ZN4Sass10ColorNames7oldlaceE R
_ZN4Sass10ColorNames7skyblueE R
_ZN4Sass10ColorNames7thistleE R
_ZN4Sass10ColorNames8cornsilkE R
_ZN4Sass10ColorNames8darkblueE R
_ZN4Sass10ColorNames8darkcyanE R
_ZN4Sass10ColorNames8darkgrayE R
_ZN4Sass10ColorNames8darkgreyE R
_ZN4Sass10ColorNames8deeppinkE R
_ZN4Sass10ColorNames8honeydewE R
_ZN4Sass10ColorNames8lavenderE R
_ZN4Sass10ColorNames8moccasinE R
_ZN4Sass10ColorNames8seagreenE R
_ZN4Sass10ColorNames8seashellE R
_ZN4Sass10ColorNames9aliceblueE R
_ZN4Sass10ColorNames9burlywoodE R
_ZN4Sass10ColorNames9cadetblueE R
_ZN4Sass10ColorNames9chocolateE R
_ZN4Sass10ColorNames9darkgreenE R
_ZN4Sass10ColorNames9darkkhakiE R
_ZN4Sass10ColorNames9firebrickE R
_ZN4Sass10ColorNames9gainsboroE R
_ZN4Sass10ColorNames9goldenrodE R
_ZN4Sass10ColorNames9indianredE R
_ZN4Sass10ColorNames9lawngreenE R
_ZN4Sass10ColorNames9lightblueE R
_ZN4Sass10ColorNames9lightcyanE R
_ZN4Sass10ColorNames9lightgrayE R
_ZN4Sass10ColorNames9lightgreyE R
_ZN4Sass10ColorNames9lightpinkE R
_ZN4Sass10ColorNames9limegreenE R
_ZN4Sass10ColorNames9mintcreamE R
_ZN4Sass10ColorNames9mistyroseE R
_ZN4Sass10ColorNames9olivedrabE R
_ZN4Sass10ColorNames9orangeredE R
_ZN4Sass10ColorNames9palegreenE R
_ZN4Sass10ColorNames9peachpuffE R
_ZN4Sass10ColorNames9rosybrownE R
_ZN4Sass10ColorNames9royalblueE R
_ZN4Sass10ColorNames9slateblueE R
_ZN4Sass10ColorNames9slategrayE R
_ZN4Sass10ColorNames9slategreyE R
_ZN4Sass10ColorNames9steelblueE R
_ZN4Sass10ColorNames9turquoiseE R
_ZN4Sass10Color_RGBA6toHSLAEv W
_ZN4Sass10Color_RGBA6toRGBAEv W
_ZN4Sass10Color_RGBA7performEPNS_9OperationINSt7__cxx1112basic_stringIcSt11char_traitsIcESaIcEEEEE W
_ZN4Sass10Color_RGBA7performEPNS_9OperationIP10Sass_ValueEE W
_ZN4Sass10Color_RGBA7performEPNS_9OperationIPNS_10ExpressionEEE W
_ZN4Sass10Color_RGBA7performEPNS_9OperationIPNS_17SupportsConditionEEE W
_ZN4Sass10Color_RGBA7performEPNS_9OperationIPNS_5ValueEEE W
_ZN4Sass10Color_RGBA7performEPNS_9OperationIPNS_8AST_NodeEEE W
_ZN4Sass10Color_RGBA7performEPNS_9OperationIPNS_8SelectorEEE W
_ZN4Sass10Color_RGBA7performEPNS_9OperationIPNS_9StatementEEE W
_ZN4Sass10Color_RGBA7performEPNS_9OperationIvEE W
_ZN4Sass10Color_RGBAC1ENS_10SourceSpanEddddNSt7__cxx1112basic_stringIcSt11char_traitsIcESaIcEEE T
_ZN4Sass10Color_RGBAC1EPKS0_ T
_ZN4Sass10Color_RGBAC2ENS_10SourceSpanEddddNSt7__cxx1112basic_stringIcSt11char_traitsIcESaIcEEE T
_ZN4Sass10Color_RGBAC2EPKS0_ T
_ZN4Sass10Color_RGBAD0Ev W
_ZN4Sass10Color_RGBAD1Ev W
_ZN4Sass10Color_RGBAD2Ev W
_ZN4Sass10Definition7performEPNS_9OperationINSt7__cxx1112basic_stringIcSt11char_traitsIcESaIcEEEEE W
_ZN4Sass10Definition7performEPNS_9OperationIP10Sass_ValueEE W
_ZN4Sass10Definition7performEPNS_9OperationIPNS_10ExpressionEEE W
_ZN4Sass10Definition7performEPNS_9OperationIPNS_17SupportsConditionEEE W
_ZN4Sass10Definition7performEPNS_9OperationIPNS_5ValueEEE W
_ZN4Sass10Definition7performEPNS_9OperationIPNS_8AST_NodeEEE W
_ZN4Sass10Definition7performEPNS_9OperationIPNS_8SelectorEEE W
_ZN4Sass10Definition7performEPNS_9OperationIPNS_9StatementEEE W
_ZN4Sass10Definition7performEPNS_9OperationIvEE W
_ZN4Sass10DefinitionC1ENS_10SourceSpanENSt7__cxx1112basic_stringIcSt11char_traitsIcESaIcEEENS_10SharedImplINS_10ParametersEEENS8_INS_5BlockEEENS0_4TypeE T
_ZN4Sass10DefinitionC1ENS_10SourceSpanEPKcNSt7__cxx1112basic_stringIcSt11char_traitsIcESaIcEEENS_10SharedImplINS_10ParametersEEEP13Sass_Function T
_ZN4Sass10DefinitionC1ENS_10SourceSpanEPKcNSt7__cxx1112basic_stringIcSt11char_traitsIcESaIcEEENS_10SharedImplINS_10ParametersEEEPFPNS_8PreValueERNS_11EnvironmentINSA_INS_8AST_NodeEEEEESJ_RNS_7ContextES3_S1_RSt6vectorINS_9BacktraceESaISN_EESM_INSA_INS_12SelectorListEEESaISS_EESU_Eb T
_ZN4Sass10DefinitionC1EPKS0_ T
_ZN4Sass10DefinitionC2ENS_10SourceSpanENSt7__cxx1112basic_stringIcSt11char_traitsIcESaIcEEENS_10SharedImplINS_10ParametersEEENS8_INS_5BlockEEENS0_4TypeE T
_ZN4Sass10DefinitionC2ENS_10SourceSpanEPKcNSt7__cxx1112basic_stringIcSt11char_traitsIcESaIcEEENS_10SharedImplINS_10ParametersEEEP13Sass_Function T
_ZN4Sass10DefinitionC2ENS_10SourceSpanEPKcNSt7__cxx1112basic_stringIcSt11char_traitsIcESaIcEEENS_10SharedImplINS_10ParametersEEEPFPNS_8PreValueERNS_11EnvironmentINSA_INS_8AST_NodeEEEEESJ_RNS_7ContextES3_S1_RSt6vectorINS_9BacktraceESaISN_EESM_INSA_INS_12SelectorListEEESaISS_EESU_Eb T
_ZN4Sass10DefinitionC2EPKS0_ T
_ZN4Sass10DefinitionD0Ev W
_ZN4Sass10DefinitionD1Ev W
_ZN4Sass10DefinitionD2Ev W
_ZN4Sass10deprecatedENSt7__cxx1112basic_stringIcSt11char_traitsIcESaIcEEES5_bNS_10SourceSpanE T
_ZN4Sass10Expression11set_delayedEb W
_ZN4Sass10Expression8is_falseEv W
_ZN4Sass10ExpressionC1ENS_10SourceSpanEbbbNS0_4TypeE T
_ZN4Sass10ExpressionC1EPKS0_ T
_ZN4Sass10ExpressionC2ENS_10SourceSpanEbbbNS0_4TypeE T
_ZN4Sass10ExpressionC2EPKS0_ T
_ZN4Sass10ExpressioncvbEv W
_ZN4Sass10ExtendRule7performEPNS_9OperationINSt7__cxx1112basic_stringIcSt11char_traitsIcESaIcEEEEE W
_ZN4Sass10ExtendRule7performEPNS_9OperationIP10Sass_ValueEE W
_ZN4Sass10ExtendRule7performEPNS_9OperationIPNS_10ExpressionEEE W
_ZN4Sass10ExtendRule7performEPNS_9OperationIPNS_17SupportsConditionEEE W
_ZN4Sass10ExtendRule7performEPNS_9OperationIPNS_5ValueEEE W
_ZN4Sass10ExtendRule7performEPNS_9OperationIPNS_8AST_NodeEEE W
_ZN4Sass10ExtendRule7performEPNS_9OperationIPNS_8SelectorEEE W
_ZN4Sass10ExtendRule7performEPNS_9OperationIPNS_9StatementEEE W
_ZN4Sass10ExtendRule7performEPNS_9OperationIvEE W
_ZN4Sass10ExtendRuleC1ENS_10SourceSpanENS_10SharedImplINS_12SelectorListEEE T
_ZN4Sass10ExtendRuleC1ENS_10SourceSpanENS_10SharedImplINS_15Selector_SchemaEEE T
_ZN4Sass10ExtendRuleC1EPKS0_ T
_ZN4Sass10ExtendRuleC2ENS_10SourceSpanENS_10SharedImplINS_12SelectorListEEE T
_ZN4Sass10ExtendRuleC2ENS_10SourceSpanENS_10SharedImplINS_15Selector_SchemaEEE T
_ZN4Sass10ExtendRuleC2EPKS0_ T
_ZN4Sass10ExtendRuleD0Ev W
_ZN4Sass10ExtendRuleD1Ev W
_ZN4Sass10ExtendRuleD2Ev W
_ZN4Sass10IDSelector13getIdSelectorEv W
_ZN4Sass10IDSelector7performEPNS_9OperationINSt7__cxx1112basic_stringIcSt11char_traitsIcESaIcEEEEE W
_ZN4Sass10IDSelector7performEPNS_9OperationIP10Sass_ValueEE W
_ZN4Sass10IDSelector7performEPNS_9OperationIPNS_10ExpressionEEE W
_ZN4Sass10IDSelector7performEPNS_9OperationIPNS_17SupportsConditionEEE W
_ZN4Sass10IDSelector7performEPNS_9OperationIPNS_5ValueEEE W
_ZN4Sass10IDSelector7performEPNS_9OperationIPNS_8AST_NodeEEE W
_ZN4Sass10IDSelector7performEPNS_9OperationIPNS_8SelectorEEE W
_ZN4Sass10IDSelector7performEPNS_9OperationIPNS_9StatementEEE W
_ZN4Sass10IDSelector7performEPNS_9OperationIvEE W
_ZN4Sass10IDSelector9unifyWithEPNS_16CompoundSelectorE T
_ZN4Sass10IDSelectorC1ENS_10SourceSpanENSt7__cxx1112basic_stringIcSt11char_traitsIcESaIcEEE T
_ZN4Sass10IDSelectorC1EPKS0_ T
_ZN4Sass10IDSelectorC2ENS_10SourceSpanENSt7__cxx1112basic_stringIcSt11char_traitsIcESaIcEEE T
_ZN4Sass10IDSelectorC2EPKS0_ T
_ZN4Sass10IDSelectorD0Ev W
_ZN4Sass10IDSelectorD1Ev W
_ZN4Sass10IDSelectorD2Ev W
_ZN4Sass10Mixin_Call7performEPNS_9OperationINSt7__cxx1112basic_stringIcSt11char_traitsIcESaIcEEEEE W
_ZN4Sass10Mixin_Call7performEPNS_9OperationIP10Sass_ValueEE W
_ZN4Sass10Mixin_Call7performEPNS_9OperationIPNS_10ExpressionEEE W
_ZN4Sass10Mixin_Call7performEPNS_9OperationIPNS_17SupportsConditionEEE W
_ZN4Sass10Mixin_Call7performEPNS_9OperationIPNS_5ValueEEE W
_ZN4Sass10Mixin_Call7performEPNS_9OperationIPNS_8AST_NodeEEE W
_ZN4Sass10Mixin_Call7performEPNS_9OperationIPNS_8SelectorEEE W
_ZN4Sass10Mixin_Call7performEPNS_9OperationIPNS_9StatementEEE W
_ZN4Sass10Mixin_Call7performEPNS_9OperationIvEE W
_ZN4Sass10Mixin_CallC1ENS_10SourceSpanENSt7__cxx1112basic_stringIcSt11char_traitsIcESaIcEEENS_10SharedImplINS_9ArgumentsEEENS8_INS_10ParametersEEENS8_INS_5BlockEEE T
_ZN4Sass10Mixin_CallC1EPKS0_ T
_ZN4Sass10Mixin_CallC2ENS_10SourceSpanENSt7__cxx1112basic_stringIcSt11char_traitsIcESaIcEEENS_10SharedImplINS_9ArgumentsEEENS8_INS_10ParametersEEENS8_INS_5BlockEEE T
_ZN4Sass10Mixin_CallC2EPKS0_ T
_ZN4Sass10Mixin_CallD0Ev W
_ZN4Sass10Mixin_CallD1Ev W
_ZN4Sass10Mixin_CallD2Ev W
_ZN4Sass10Parameters20adjust_after_pushingENS_10SharedImplINS_9ParameterEEE T
_ZN4Sass10Parameters7performEPNS_9OperationINSt7__cxx1112basic_stringIcSt11char_traitsIcESaIcEEEEE W
_ZN4Sass10Parameters7performEPNS_9OperationIP10Sass_ValueEE W
_ZN4Sass10Parameters7performEPNS_9OperationIPNS_10ExpressionEEE W
_ZN4Sass10Parameters7performEPNS_9OperationIPNS_17SupportsConditionEEE W
_ZN4Sass10Parameters7performEPNS_9OperationIPNS_5ValueEEE W
_ZN4Sass10Parameters7performEPNS_9OperationIPNS_8AST_NodeEEE W
_ZN4Sass10Parameters7performEPNS_9OperationIPNS_8SelectorEEE W
_ZN4Sass10Parameters7performEPNS_9OperationIPNS_9StatementEEE W
_ZN4Sass10Parameters7performEPNS_9OperationIvEE W
_ZN4Sass10ParametersC1ENS_10SourceSpanE T
_ZN4Sass10ParametersC1EPKS0_ T
_ZN4Sass10ParametersC2ENS_10SourceSpanE T
_ZN4Sass10ParametersC2EPKS0_ T
_ZN4Sass10ParametersD0Ev W
_ZN4Sass10ParametersD1Ev W
_ZN4Sass10ParametersD2Ev W
_ZN4Sass10SourceDataC1Ev T
_ZN4Sass10SourceDataC2Ev T
_ZN4Sass10SourceFile13getSourceSpanEv T
_ZN4Sass10SourceFileC1EPKcS2_m T
_ZN4Sass10SourceFileC2EPKcS2_m T
_ZN4Sass10SourceFileD0Ev T
_ZN4Sass10SourceFileD1Ev T
_ZN4Sass10SourceFileD2Ev T
_ZN4Sass10SourceSpanaSEOS0_ W
_ZN4Sass10SourceSpanaSERKS0_ W
_ZN4Sass10SourceSpanC1ENS_10SharedImplINS_10SourceDataEEERKNS_6OffsetES6_ T
_ZN4Sass10SourceSpanC1EPKc T
_ZN4Sass10SourceSpanC2ENS_10SharedImplINS_10SourceDataEEERKNS_6OffsetES6_ T
_ZN4Sass10SourceSpanC2EPKc T
_ZN4Sass10SourceSpanD1Ev W
_ZN4Sass10SourceSpanD2Ev W
_ZN4Sass10StyleSheetC1ERKNS_8ResourceENS_10SharedImplINS_5BlockEEE T
_ZN4Sass10StyleSheetC1ERKS0_ T
_ZN4Sass10StyleSheetC2ERKNS_8ResourceENS_10SharedImplINS_5BlockEEE T
_ZN4Sass10StyleSheetC2ERKS0_ T
_ZN4Sass10VectorizedINS_10SharedImplINS_10ExpressionEEEE20adjust_after_pushingES3_ W
_ZN4Sass10VectorizedINS_10SharedImplINS_10ExpressionEEEE2atEm W
_ZN4Sass10VectorizedINS_10SharedImplINS_10ExpressionEEEE6appendES3_ W
_ZN4Sass10VectorizedINS_10SharedImplINS_13CssMediaQueryEEEE20adjust_after_pushingES3_ W
_ZN4Sass10VectorizedINS_10SharedImplINS_13CssMediaQueryEEEE2atEm W
_ZN4Sass10VectorizedINS_10SharedImplINS_14SimpleSelectorEEEE20adjust_after_pushingES3_ W
_ZN4Sass10VectorizedINS_10SharedImplINS_14SimpleSelectorEEEE2atEm W
_ZN4Sass10VectorizedINS_10SharedImplINS_15ComplexSelectorEEEE20adjust_after_pushingES3_ W
_ZN4Sass10VectorizedINS_10SharedImplINS_15ComplexSelectorEEEE2atEm W
_ZN4Sass10VectorizedINS_10SharedImplINS_15ComplexSelectorEEEE6appendES3_ W
_ZN4Sass10VectorizedINS_10SharedImplINS_17SelectorComponentEEEE20adjust_after_pushingES3_ W
_ZN4Sass10VectorizedINS_10SharedImplINS_17SelectorComponentEEEE2atEm W
_ZN4Sass10VectorizedINS_10SharedImplINS_17SelectorComponentEEEE6appendES3_ W
_ZN4Sass10VectorizedINS_10SharedImplINS_22Media_Query_ExpressionEEEE20adjust_after_pushingES3_ W
_ZN4Sass10VectorizedINS_10SharedImplINS_22Media_Query_ExpressionEEEE2atEm W
_ZN4Sass10VectorizedINS_10SharedImplINS_22Media_Query_ExpressionEEEE6appendES3_ W
_ZN4Sass10VectorizedINS_10SharedImplINS_8ArgumentEEEE20adjust_after_pushingES3_ W
_ZN4Sass10VectorizedINS_10SharedImplINS_8ArgumentEEEE2atEm W
_ZN4Sass10VectorizedINS_10SharedImplINS_8ArgumentEEEE6appendES3_ W
_ZN4Sass10VectorizedINS_10SharedImplINS_8PreValueEEEE20adjust_after_pushingES3_ W
_ZN4Sass10VectorizedINS_10SharedImplINS_8PreValueEEEE2atEm W
_ZN4Sass10VectorizedINS_10SharedImplINS_8PreValueEEEE6appendES3_ W
_ZN4Sass10VectorizedINS_10SharedImplINS_9ParameterEEEE20adjust_after_pushingES3_ W
_ZN4Sass10VectorizedINS_10SharedImplINS_9ParameterEEEE2atEm W
_ZN4Sass10VectorizedINS_10SharedImplINS_9StatementEEEE20adjust_after_pushingES3_ W
_ZN4Sass10VectorizedINS_10SharedImplINS_9StatementEEEE2atEm W
_ZN4Sass10VectorizedINS_10SharedImplINS_9StatementEEEE6appendES3_ W
_ZN4Sass11Declaration7performEPNS_9OperationINSt7__cxx1112basic_stringIcSt11char_traitsIcESaIcEEEEE W
_ZN4Sass11Declaration7performEPNS_9OperationIP10Sass_ValueEE W
_ZN4Sass11Declaration7performEPNS_9OperationIPNS_10ExpressionEEE W
_ZN4Sass11Declaration7performEPNS_9OperationIPNS_17SupportsConditionEEE W
_ZN4Sass11Declaration7performEPNS_9OperationIPNS_5ValueEEE W
_ZN4Sass11Declaration7performEPNS_9OperationIPNS_8AST_NodeEEE W
_ZN4Sass11Declaration7performEPNS_9OperationIPNS_8SelectorEEE W
_ZN4Sass11Declaration7performEPNS_9OperationIPNS_9StatementEEE W
_ZN4Sass11Declaration7performEPNS_9OperationIvEE W
_ZN4Sass11DeclarationC1ENS_10SourceSpanENS_10SharedImplINS_6StringEEENS2_INS_10ExpressionEEEbbNS2_INS_5BlockEEE T
_ZN4Sass11DeclarationC1EPKS0_ T
_ZN4Sass11DeclarationC2ENS_10SourceSpanENS_10SharedImplINS_6StringEEENS2_INS_10ExpressionEEEbbNS2_INS_5BlockEEE T
_ZN4Sass11DeclarationC2EPKS0_ T
_ZN4Sass11DeclarationD0Ev W
_ZN4Sass11DeclarationD1Ev W
_ZN4Sass11DeclarationD2Ev W
_ZN4Sass11EnvironmentINS_10SharedImplINS_8AST_NodeEEEE10del_globalERKNSt7__cxx1112basic_stringIcSt11char_traitsIcESaIcEEE W
_ZN4Sass11EnvironmentINS_10SharedImplINS_8AST_NodeEEEE10find_localERKNSt7__cxx1112basic_stringIcSt11char_traitsIcESaIcEEE W
_ZN4Sass11EnvironmentINS_10SharedImplINS_8AST_NodeEEEE10get_globalERKNSt7__cxx1112basic_stringIcSt11char_traitsIcESaIcEEE W
_ZN4Sass11EnvironmentINS_10SharedImplINS_8AST_NodeEEEE10global_envEv W
_ZN4Sass11EnvironmentINS_10SharedImplINS_8AST_NodeEEEE10has_globalERKNSt7__cxx1112basic_stringIcSt11char_traitsIcESaIcEEE W
_ZN4Sass11EnvironmentINS_10SharedImplINS_8AST_NodeEEEE10set_globalERKNSt7__cxx1112basic_stringIcSt11char_traitsIcESaIcEEEOS3_ W
_ZN4Sass11EnvironmentINS_10SharedImplINS_8AST_NodeEEEE10set_globalERKNSt7__cxx1112basic_stringIcSt11char_traitsIcESaIcEEERKS3_ W
_ZN4Sass11EnvironmentINS_10SharedImplINS_8AST_NodeEEEE11lexical_envERKNSt7__cxx1112basic_stringIcSt11char_traitsIcESaIcEEE W
_ZN4Sass11EnvironmentINS_10SharedImplINS_8AST_NodeEEEE11local_frameB5cxx11Ev W
_ZN4Sass11EnvironmentINS_10SharedImplINS_8AST_NodeEEEE11set_lexicalERKNSt7__cxx1112basic_stringIcSt11char_traitsIcESaIcEEEOS3_ W
_ZN4Sass11EnvironmentINS_10SharedImplINS_8AST_NodeEEEE11set_lexicalERKNSt7__cxx1112basic_stringIcSt11char_traitsIcESaIcEEERKS3_ W
_ZN4Sass11EnvironmentINS_10SharedImplINS_8AST_NodeEEEE3getERKNSt7__cxx1112basic_stringIcSt11char_traitsIcESaIcEEE W
_ZN4Sass11EnvironmentINS_10SharedImplINS_8AST_NodeEEEE4findERKNSt7__cxx1112basic_stringIcSt11char_traitsIcESaIcEEE W
_ZN4Sass11EnvironmentINS_10SharedImplINS_8AST_NodeEEEE4linkEPS4_ W
_ZN4Sass11EnvironmentINS_10SharedImplINS_8AST_NodeEEEE4linkERS4_ W
_ZN4Sass11EnvironmentINS_10SharedImplINS_8AST_NodeEEEE6parentEPS4_ W
_ZN4Sass11EnvironmentINS_10SharedImplINS_8AST_NodeEEEE9del_localERKNSt7__cxx1112basic_stringIcSt11char_traitsIcESaIcEEE W
_ZN4Sass11EnvironmentINS_10SharedImplINS_8AST_NodeEEEE9get_localERKNSt7__cxx1112basic_stringIcSt11char_traitsIcESaIcEEE W
_ZN4Sass11EnvironmentINS_10SharedImplINS_8AST_NodeEEEE9is_shadowEb W
_ZN4Sass11EnvironmentINS_10SharedImplINS_8AST_NodeEEEE9set_localERKNSt7__cxx1112basic_stringIcSt11char_traitsIcESaIcEEEOS3_ W
_ZN4Sass11EnvironmentINS_10SharedImplINS_8AST_NodeEEEE9set_localERKNSt7__cxx1112basic_stringIcSt11char_traitsIcESaIcEEERKS3_ W
_ZN4Sass11EnvironmentINS_10SharedImplINS_8AST_NodeEEEEC1Eb W
_ZN4Sass11EnvironmentINS_10SharedImplINS_8AST_NodeEEEEC1EPS4_b W
_ZN4Sass11EnvironmentINS_10SharedImplINS_8AST_NodeEEEEC1ERS4_b W
_ZN4Sass11EnvironmentINS_10SharedImplINS_8AST_NodeEEEEC2Eb W
_ZN4Sass11EnvironmentINS_10SharedImplINS_8AST_NodeEEEEC2EPS4_b W
_ZN4Sass11EnvironmentINS_10SharedImplINS_8AST_NodeEEEEC2ERS4_b W
_ZN4Sass11EnvironmentINS_10SharedImplINS_8AST_NodeEEEEixERKNSt7__cxx1112basic_stringIcSt11char_traitsIcESaIcEEE W
_ZN4Sass11Import_Stub7performEPNS_9OperationINSt7__cxx1112basic_stringIcSt11char_traitsIcESaIcEEEEE W
_ZN4Sass11Import_Stub7performEPNS_9OperationIP10Sass_ValueEE W
_ZN4Sass11Import_Stub7performEPNS_9OperationIPNS_10ExpressionEEE W
_ZN4Sass11Import_Stub7performEPNS_9OperationIPNS_17SupportsConditionEEE W
_ZN4Sass11Import_Stub7performEPNS_9OperationIPNS_5ValueEEE W
_ZN4Sass11Import_Stub7performEPNS_9OperationIPNS_8AST_NodeEEE W
_ZN4Sass11Import_Stub7performEPNS_9OperationIPNS_8SelectorEEE W
_ZN4Sass11Import_Stub7performEPNS_9OperationIPNS_9StatementEEE W
_ZN4Sass11Import_Stub7performEPNS_9OperationIvEE W
_ZN4Sass11Import_Stub8abs_pathB5cxx11Ev T
_ZN4Sass11Import_Stub8imp_pathB5cxx11Ev T
_ZN4Sass11Import_Stub8resourceEv T
_ZN4Sass11Import_StubC1ENS_10SourceSpanENS_7IncludeE T
_ZN4Sass11Import_StubC1EPKS0_ T
_ZN4Sass11Import_StubC2ENS_10SourceSpanENS_7IncludeE T
_ZN4Sass11Import_StubC2EPKS0_ T
_ZN4Sass11Import_StubD0Ev W
_ZN4Sass11Import_StubD1Ev W
_ZN4Sass11Import_StubD2Ev W
_ZN4Sass11listIsEmptyINS_14SimpleSelectorEEEbPT_ W
_ZN4Sass11listIsEmptyINS_15ComplexSelectorEEEbPT_ W
_ZN4Sass11listIsEmptyINS_17SelectorComponentEEEbPT_ W
_ZN4Sass11Media_Query7performEPNS_9OperationINSt7__cxx1112basic_stringIcSt11char_traitsIcESaIcEEEEE W
_ZN4Sass11Media_Query7performEPNS_9OperationIP10Sass_ValueEE W
_ZN4Sass11Media_Query7performEPNS_9OperationIPNS_10ExpressionEEE W
_ZN4Sass11Media_Query7performEPNS_9OperationIPNS_17SupportsConditionEEE W
_ZN4Sass11Media_Query7performEPNS_9OperationIPNS_5ValueEEE W
_ZN4Sass11Media_Query7performEPNS_9OperationIPNS_8AST_NodeEEE W
_ZN4Sass11Media_Query7performEPNS_9OperationIPNS_8SelectorEEE W
_ZN4Sass11Media_Query7performEPNS_9OperationIPNS_9StatementEEE W
_ZN4Sass11Media_Query7performEPNS_9OperationIvEE W
_ZN4Sass11Media_QueryC1ENS_10SourceSpanENS_10SharedImplINS_6StringEEEmbb T
_ZN4Sass11Media_QueryC1EPKS0_ T
_ZN4Sass11Media_QueryC2ENS_10SourceSpanENS_10SharedImplINS_6StringEEEmbb T
_ZN4Sass11Media_QueryC2EPKS0_ T
_ZN4Sass11Media_QueryD0Ev W
_ZN4Sass11Media_QueryD1Ev W
_ZN4Sass11Media_QueryD2Ev W
_ZN4Sass11ordered_mapINS_10SharedImplINS_15ComplexSelectorEEENS_9ExtensionENS_7ObjHashENS_11ObjEqualityESaISt4pairIKS3_S4_EEE6insertERS8_RKS4_ W
_ZN4Sass11ordered_mapINS_10SharedImplINS_15ComplexSelectorEEENS_9ExtensionENS_7ObjHashENS_11ObjEqualityESaISt4pairIKS3_S4_EEED1Ev W
_ZN4Sass11ordered_mapINS_10SharedImplINS_15ComplexSelectorEEENS_9ExtensionENS_7ObjHashENS_11ObjEqualityESaISt4pairIKS3_S4_EEED2Ev W
_ZN4Sass11sass_strtodEPKc T
_ZN4Sass11WarningRule7performEPNS_9OperationINSt7__cxx1112basic_stringIcSt11char_traitsIcESaIcEEEEE W
_ZN4Sass11WarningRule7performEPNS_9OperationIP10Sass_ValueEE W
_ZN4Sass11WarningRule7performEPNS_9OperationIPNS_10ExpressionEEE W
_ZN4Sass11WarningRule7performEPNS_9OperationIPNS_17SupportsConditionEEE W
_ZN4Sass11WarningRule7performEPNS_9OperationIPNS_5ValueEEE W
_ZN4Sass11WarningRule7performEPNS_9OperationIPNS_8AST_NodeEEE W
_ZN4Sass11WarningRule7performEPNS_9OperationIPNS_8SelectorEEE W
_ZN4Sass11WarningRule7performEPNS_9OperationIPNS_9StatementEEE W
_ZN4Sass11WarningRule7performEPNS_9OperationIvEE W
_ZN4Sass11WarningRuleC1ENS_10SourceSpanENS_10SharedImplINS_10ExpressionEEE T
_ZN4Sass11WarningRuleC1EPKS0_ T
_ZN4Sass11WarningRuleC2ENS_10SourceSpanENS_10SharedImplINS_10ExpressionEEE T
_ZN4Sass11WarningRuleC2EPKS0_ T
_ZN4Sass11WarningRuleD0Ev W
_ZN4Sass11WarningRuleD1Ev W
_ZN4Sass11WarningRuleD2Ev W
_ZN4Sass12CheckNesting10is_charsetEPNS_9StatementE T
_ZN4Sass12CheckNesting11is_functionEPNS_9StatementE T
_ZN4Sass12CheckNesting12is_root_nodeEPNS_9StatementE T
_ZN4Sass12CheckNesting12should_visitEPNS_9StatementE T
_ZN4Sass12CheckNesting14visit_childrenEPNS_9StatementE T
_ZN4Sass12CheckNesting15is_at_root_nodeEPNS_9StatementE T
_ZN4Sass12CheckNesting17is_directive_nodeEPNS_9StatementE T
_ZN4Sass12CheckNesting18invalid_prop_childEPNS_9StatementE T
_ZN4Sass12CheckNesting19invalid_prop_parentEPNS_9StatementEPNS_8AST_NodeE T
_ZN4Sass12CheckNesting19invalid_value_childEPNS_8AST_NodeE T
_ZN4Sass12CheckNesting21invalid_extend_parentEPNS_9StatementEPNS_8AST_NodeE T
_ZN4Sass12CheckNesting21invalid_return_parentEPNS_9StatementEPNS_8AST_NodeE T
_ZN4Sass12CheckNesting21is_transparent_parentEPNS_9StatementES2_ T
_ZN4Sass12CheckNesting22invalid_charset_parentEPNS_9StatementEPNS_8AST_NodeE T
_ZN4Sass12CheckNesting22invalid_content_parentEPNS_9StatementEPNS_8AST_NodeE T
_ZN4Sass12CheckNesting22invalid_function_childEPNS_9StatementE T
_ZN4Sass12CheckNesting23invalid_function_parentEPNS_9StatementEPNS_8AST_NodeE T
_ZN4Sass12CheckNesting31invalid_mixin_definition_parentEPNS_9StatementEPNS_8AST_NodeE T
_ZN4Sass12CheckNesting8is_mixinEPNS_9StatementE T
_ZN4Sass12CheckNestingC1Ev T
_ZN4Sass12CheckNestingC2Ev T
_ZN4Sass12CheckNestingclEPNS_10DefinitionE T
_ZN4Sass12CheckNestingclEPNS_2IfE T
_ZN4Sass12CheckNestingclEPNS_5BlockE T
_ZN4Sass12CheckNestingD1Ev W
_ZN4Sass12CheckNestingD2Ev W
_ZN4Sass12copy_stringsERKSt6vectorINSt7__cxx1112basic_stringIcSt11char_traitsIcESaIcEEESaIS6_EEPPPci T
_ZN4Sass12CssMediaRule7bubblesEv W
_ZN4Sass12CssMediaRule7performEPNS_9OperationINSt7__cxx1112basic_stringIcSt11char_traitsIcESaIcEEEEE W
_ZN4Sass12CssMediaRule7performEPNS_9OperationIP10Sass_ValueEE W
_ZN4Sass12CssMediaRule7performEPNS_9OperationIPNS_10ExpressionEEE W
_ZN4Sass12CssMediaRule7performEPNS_9OperationIPNS_17SupportsConditionEEE W
_ZN4Sass12CssMediaRule7performEPNS_9OperationIPNS_5ValueEEE W
_ZN4Sass12CssMediaRule7performEPNS_9OperationIPNS_8AST_NodeEEE W
_ZN4Sass12CssMediaRule7performEPNS_9OperationIPNS_8SelectorEEE W
_ZN4Sass12CssMediaRule7performEPNS_9OperationIPNS_9StatementEEE W
_ZN4Sass12CssMediaRule7performEPNS_9OperationIvEE W
_ZN4Sass12CssMediaRuleC1ENS_10SourceSpanENS_10SharedImplINS_5BlockEEE T
_ZN4Sass12CssMediaRuleC1EPKS0_ T
_ZN4Sass12CssMediaRuleC2ENS_10SourceSpanENS_10SharedImplINS_5BlockEEE T
_ZN4Sass12CssMediaRuleC2EPKS0_ T
_ZN4Sass12CssMediaRuleD0Ev W
_ZN4Sass12CssMediaRuleD1Ev W
_ZN4Sass12CssMediaRuleD2Ev W
_ZN4Sass12Custom_Error7performEPNS_9OperationINSt7__cxx1112basic_stringIcSt11char_traitsIcESaIcEEEEE W
_ZN4Sass12Custom_Error7performEPNS_9OperationIP10Sass_ValueEE W
_ZN4Sass12Custom_Error7performEPNS_9OperationIPNS_10ExpressionEEE W
_ZN4Sass12Custom_Error7performEPNS_9OperationIPNS_17SupportsConditionEEE W
_ZN4Sass12Custom_Error7performEPNS_9OperationIPNS_5ValueEEE W
_ZN4Sass12Custom_Error7performEPNS_9OperationIPNS_8AST_NodeEEE W
_ZN4Sass12Custom_Error7performEPNS_9OperationIPNS_8SelectorEEE W
_ZN4Sass12Custom_Error7performEPNS_9OperationIPNS_9StatementEEE W
_ZN4Sass12Custom_Error7performEPNS_9OperationIvEE W
_ZN4Sass12Custom_ErrorC1ENS_10SourceSpanENSt7__cxx1112basic_stringIcSt11char_traitsIcESaIcEEE T
_ZN4Sass12Custom_ErrorC1EPKS0_ T
_ZN4Sass12Custom_ErrorC2ENS_10SourceSpanENSt7__cxx1112basic_stringIcSt11char_traitsIcESaIcEEE T
_ZN4Sass12Custom_ErrorC2EPKS0_ T
_ZN4Sass12Custom_ErrorD0Ev W
_ZN4Sass12Custom_ErrorD1Ev W
_ZN4Sass12Custom_ErrorD2Ev W
_ZN4Sass12Data_Context5parseEv T
_ZN4Sass12Data_ContextD0Ev T
_ZN4Sass12Data_ContextD1Ev T
_ZN4Sass12Data_ContextD2Ev T
_ZN4Sass12File_Context5parseEv T
_ZN4Sass12File_ContextD0Ev T
_ZN4Sass12File_ContextD1Ev T
_ZN4Sass12File_ContextD2Ev T
_ZN4Sass12flattenInnerISt6vectorIS1_INS_10SharedImplINS_17SelectorComponentEEESaIS4_EESaIS6_EEEET_RKS1_IS9_SaIS9_EE W
_ZN4Sass12hash_combineINSt7__cxx1112basic_stringIcSt11char_traitsIcESaIcEEEEEvRmRKT_ W
_ZN4Sass12ListEqualityISt6vectorINS_10SharedImplINS_17SelectorComponentEEESaIS4_EES6_S3_S3_EEbRKT_RKT0_PFbPKT1_PKT2_E W
_ZN4Sass12OutputBufferD1Ev W
_ZN4Sass12OutputBufferD2Ev W
_ZN4Sass12permutateAltINS_10SharedImplINS_15ComplexSelectorEEEEESt6vectorIS4_IT_SaIS5_EESaIS7_EERKS9_ W
_ZN4Sass12SelectorList13cloneChildrenEv T
_ZN4Sass12SelectorList19resolve_parent_refsESt6vectorINS_10SharedImplIS0_EESaIS3_EERS1_INS_9BacktraceESaIS6_EEb T
_ZN4Sass12SelectorList7performEPNS_9OperationINSt7__cxx1112basic_stringIcSt11char_traitsIcESaIcEEEEE W
_ZN4Sass12SelectorList7performEPNS_9OperationIP10Sass_ValueEE W
_ZN4Sass12SelectorList7performEPNS_9OperationIPNS_10ExpressionEEE W
_ZN4Sass12SelectorList7performEPNS_9OperationIPNS_17SupportsConditionEEE W
_ZN4Sass12SelectorList7performEPNS_9OperationIPNS_5ValueEEE W
_ZN4Sass12SelectorList7performEPNS_9OperationIPNS_8AST_NodeEEE W
_ZN4Sass12SelectorList7performEPNS_9OperationIPNS_8SelectorEEE W
_ZN4Sass12SelectorList7performEPNS_9OperationIPNS_9StatementEEE W
_ZN4Sass12SelectorList7performEPNS_9OperationIvEE W
_ZN4Sass12SelectorList9unifyWithEPS0_ T
_ZN4Sass12SelectorListC1ENS_10SourceSpanEm T
_ZN4Sass12SelectorListC1EPKS0_ T
_ZN4Sass12SelectorListC2ENS_10SourceSpanEm T
_ZN4Sass12SelectorListC2EPKS0_ T
_ZN4Sass12SelectorListD0Ev W
_ZN4Sass12SelectorListD1Ev W
_ZN4Sass12SelectorListD2Ev W
_ZN4Sass12SupportsRule7bubblesEv T
_ZN4Sass12SupportsRule7performEPNS_9OperationINSt7__cxx1112basic_stringIcSt11char_traitsIcESaIcEEEEE W
_ZN4Sass12SupportsRule7performEPNS_9OperationIP10Sass_ValueEE W
_ZN4Sass12SupportsRule7performEPNS_9OperationIPNS_10ExpressionEEE W
_ZN4Sass12SupportsRule7performEPNS_9OperationIPNS_17SupportsConditionEEE W
_ZN4Sass12SupportsRule7performEPNS_9OperationIPNS_5ValueEEE W
_ZN4Sass12SupportsRule7performEPNS_9OperationIPNS_8AST_NodeEEE W
_ZN4Sass12SupportsRule7performEPNS_9OperationIPNS_8SelectorEEE W
_ZN4Sass12SupportsRule7performEPNS_9OperationIPNS_9StatementEEE W
_ZN4Sass12SupportsRule7performEPNS_9OperationIvEE W
_ZN4Sass12SupportsRuleC1ENS_10SourceSpanENS_10SharedImplINS_17SupportsConditionEEENS2_INS_5BlockEEE T
_ZN4Sass12SupportsRuleC1EPKS0_ T
_ZN4Sass12SupportsRuleC2ENS_10SourceSpanENS_10SharedImplINS_17SupportsConditionEEENS2_INS_5BlockEEE T
_ZN4Sass12SupportsRuleC2EPKS0_ T
_ZN4Sass12SupportsRuleD0Ev W
_ZN4Sass12SupportsRuleD1Ev W
_ZN4Sass12SupportsRuleD2Ev W
_ZN4Sass12TypeSelector15getTypeSelectorEv W
_ZN4Sass12TypeSelector7performEPNS_9OperationINSt7__cxx1112basic_stringIcSt11char_traitsIcESaIcEEEEE W
_ZN4Sass12TypeSelector7performEPNS_9OperationIP10Sass_ValueEE W
_ZN4Sass12TypeSelector7performEPNS_9OperationIPNS_10ExpressionEEE W
_ZN4Sass12TypeSelector7performEPNS_9OperationIPNS_17SupportsConditionEEE W
_ZN4Sass12TypeSelector7performEPNS_9OperationIPNS_5ValueEEE W
_ZN4Sass12TypeSelector7performEPNS_9OperationIPNS_8AST_NodeEEE W
_ZN4Sass12TypeSelector7performEPNS_9OperationIPNS_8SelectorEEE W
_ZN4Sass12TypeSelector7performEPNS_9OperationIPNS_9StatementEEE W
_ZN4Sass12TypeSelector7performEPNS_9OperationIvEE W
_ZN4Sass12TypeSelector9unifyWithEPKNS_14SimpleSelectorE T
_ZN4Sass12TypeSelector9unifyWithEPNS_16CompoundSelectorE T
_ZN4Sass12TypeSelectorC1ENS_10SourceSpanENSt7__cxx1112basic_stringIcSt11char_traitsIcESaIcEEE T
_ZN4Sass12TypeSelectorC1EPKS0_ T
_ZN4Sass12TypeSelectorC2ENS_10SourceSpanENSt7__cxx1112basic_stringIcSt11char_traitsIcESaIcEEE T
_ZN4Sass12TypeSelectorC2EPKS0_ T
_ZN4Sass12TypeSelectorD0Ev W
_ZN4Sass12TypeSelectorD1Ev W
_ZN4Sass12TypeSelectorD2Ev W
_ZN4Sass12unifyComplexERKSt6vectorIS0_INS_10SharedImplINS_17SelectorComponentEEESaIS3_EESaIS5_EE T
_ZN4Sass12weaveParentsESt6vectorINS_10SharedImplINS_17SelectorComponentEEESaIS3_EES5_ T
_ZN4Sass13At_Root_Query7excludeENSt7__cxx1112basic_stringIcSt11char_traitsIcESaIcEEE T
_ZN4Sass13At_Root_Query7performEPNS_9OperationINSt7__cxx1112basic_stringIcSt11char_traitsIcESaIcEEEEE W
_ZN4Sass13At_Root_Query7performEPNS_9OperationIP10Sass_ValueEE W
_ZN4Sass13At_Root_Query7performEPNS_9OperationIPNS_10ExpressionEEE W
_ZN4Sass13At_Root_Query7performEPNS_9OperationIPNS_17SupportsConditionEEE W
_ZN4Sass13At_Root_Query7performEPNS_9OperationIPNS_5ValueEEE W
_ZN4Sass13At_Root_Query7performEPNS_9OperationIPNS_8AST_NodeEEE W
_ZN4Sass13At_Root_Query7performEPNS_9OperationIPNS_8SelectorEEE W
_ZN4Sass13At_Root_Query7performEPNS_9OperationIPNS_9StatementEEE W
_ZN4Sass13At_Root_Query7performEPNS_9OperationIvEE W
_ZN4Sass13At_Root_QueryC1ENS_10SourceSpanENS_10SharedImplINS_10ExpressionEEES4_b T
_ZN4Sass13At_Root_QueryC1EPKS0_ T
_ZN4Sass13At_Root_QueryC2ENS_10SourceSpanENS_10SharedImplINS_10ExpressionEEES4_b T
_ZN4Sass13At_Root_QueryC2EPKS0_ T
_ZN4Sass13At_Root_QueryD0Ev W
_ZN4Sass13At_Root_QueryD1Ev W
_ZN4Sass13At_Root_QueryD2Ev W
_ZN4Sass13BothAreSpacesEcc T
_ZN4Sass13ClassSelector7performEPNS_9OperationINSt7__cxx1112basic_stringIcSt11char_traitsIcESaIcEEEEE W
_ZN4Sass13ClassSelector7performEPNS_9OperationIP10Sass_ValueEE W
_ZN4Sass13ClassSelector7performEPNS_9OperationIPNS_10ExpressionEEE W
_ZN4Sass13ClassSelector7performEPNS_9OperationIPNS_17SupportsConditionEEE W
_ZN4Sass13ClassSelector7performEPNS_9OperationIPNS_5ValueEEE W
_ZN4Sass13ClassSelector7performEPNS_9OperationIPNS_8AST_NodeEEE W
_ZN4Sass13ClassSelector7performEPNS_9OperationIPNS_8SelectorEEE W
_ZN4Sass13ClassSelector7performEPNS_9OperationIPNS_9StatementEEE W
_ZN4Sass13ClassSelector7performEPNS_9OperationIvEE W
_ZN4Sass13ClassSelectorC1ENS_10SourceSpanENSt7__cxx1112basic_stringIcSt11char_traitsIcESaIcEEE T
_ZN4Sass13ClassSelectorC1EPKS0_ T
_ZN4Sass13ClassSelectorC2ENS_10SourceSpanENSt7__cxx1112basic_stringIcSt11char_traitsIcESaIcEEE T
_ZN4Sass13ClassSelectorC2EPKS0_ T
_ZN4Sass13ClassSelectorD0Ev W
_ZN4Sass13ClassSelectorD1Ev W
_ZN4Sass13ClassSelectorD2Ev W
_ZN4Sass13color_to_nameEd T
_ZN4Sass13color_to_nameEi T
_ZN4Sass13color_to_nameERKNS_10Color_RGBAE T
_ZN4Sass13convert_unitsERKNSt7__cxx1112basic_stringIcSt11char_traitsIcESaIcEEES7_RiS8_ T
_ZN4Sass13CssMediaQuery5mergeERNS_10SharedImplIS0_EE T
_ZN4Sass13CssMediaQuery7performEPNS_9OperationINSt7__cxx1112basic_stringIcSt11char_traitsIcESaIcEEEEE W
_ZN4Sass13CssMediaQuery7performEPNS_9OperationIP10Sass_ValueEE W
_ZN4Sass13CssMediaQuery7performEPNS_9OperationIPNS_10ExpressionEEE W
_ZN4Sass13CssMediaQuery7performEPNS_9OperationIPNS_17SupportsConditionEEE W
_ZN4Sass13CssMediaQuery7performEPNS_9OperationIPNS_5ValueEEE W
_ZN4Sass13CssMediaQuery7performEPNS_9OperationIPNS_8AST_NodeEEE W
_ZN4Sass13CssMediaQuery7performEPNS_9OperationIPNS_8SelectorEEE W
_ZN4Sass13CssMediaQuery7performEPNS_9OperationIPNS_9StatementEEE W
_ZN4Sass13CssMediaQuery7performEPNS_9OperationIvEE W
_ZN4Sass13CssMediaQueryC1ENS_10SourceSpanE T
_ZN4Sass13CssMediaQueryC1EPKS0_ T
_ZN4Sass13CssMediaQueryC2ENS_10SourceSpanE T
_ZN4Sass13CssMediaQueryC2EPKS0_ T
_ZN4Sass13CssMediaQueryD0Ev W
_ZN4Sass13CssMediaQueryD1Ev W
_ZN4Sass13CssMediaQueryD2Ev W
_ZN4Sass13escape_stringERKNSt7__cxx1112basic_stringIcSt11char_traitsIcESaIcEEE T
_ZN4Sass13Function_Call6is_cssEv T
_ZN4Sass13Function_Call7performEPNS_9OperationINSt7__cxx1112basic_stringIcSt11char_traitsIcESaIcEEEEE W
_ZN4Sass13Function_Call7performEPNS_9OperationIP10Sass_ValueEE W
_ZN4Sass13Function_Call7performEPNS_9OperationIPNS_10ExpressionEEE W
_ZN4Sass13Function_Call7performEPNS_9OperationIPNS_17SupportsConditionEEE W
_ZN4Sass13Function_Call7performEPNS_9OperationIPNS_5ValueEEE W
_ZN4Sass13Function_Call7performEPNS_9OperationIPNS_8AST_NodeEEE W
_ZN4Sass13Function_Call7performEPNS_9OperationIPNS_8SelectorEEE W
_ZN4Sass13Function_Call7performEPNS_9OperationIPNS_9StatementEEE W
_ZN4Sass13Function_Call7performEPNS_9OperationIvEE W
_ZN4Sass13Function_CallC1ENS_10SourceSpanENS_10SharedImplINS_6StringEEENS2_INS_9ArgumentsEEE T
_ZN4Sass13Function_CallC1ENS_10SourceSpanENS_10SharedImplINS_6StringEEENS2_INS_9ArgumentsEEENS2_INS_8FunctionEEE T
_ZN4Sass13Function_CallC1ENS_10SourceSpanENS_10SharedImplINS_6StringEEENS2_INS_9ArgumentsEEEPv T
_ZN4Sass13Function_CallC1ENS_10SourceSpanENSt7__cxx1112basic_stringIcSt11char_traitsIcESaIcEEENS_10SharedImplINS_9ArgumentsEEE T
_ZN4Sass13Function_CallC1ENS_10SourceSpanENSt7__cxx1112basic_stringIcSt11char_traitsIcESaIcEEENS_10SharedImplINS_9ArgumentsEEENS8_INS_8FunctionEEE T
_ZN4Sass13Function_CallC1ENS_10SourceSpanENSt7__cxx1112basic_stringIcSt11char_traitsIcESaIcEEENS_10SharedImplINS_9ArgumentsEEEPv T
_ZN4Sass13Function_CallC1EPKS0_ T
_ZN4Sass13Function_CallC2ENS_10SourceSpanENS_10SharedImplINS_6StringEEENS2_INS_9ArgumentsEEE T
_ZN4Sass13Function_CallC2ENS_10SourceSpanENS_10SharedImplINS_6StringEEENS2_INS_9ArgumentsEEENS2_INS_8FunctionEEE T
_ZN4Sass13Function_CallC2ENS_10SourceSpanENS_10SharedImplINS_6StringEEENS2_INS_9ArgumentsEEEPv T
_ZN4Sass13Function_CallC2ENS_10SourceSpanENSt7__cxx1112basic_stringIcSt11char_traitsIcESaIcEEENS_10SharedImplINS_9ArgumentsEEE T
_ZN4Sass13Function_CallC2ENS_10SourceSpanENSt7__cxx1112basic_stringIcSt11char_traitsIcESaIcEEENS_10SharedImplINS_9ArgumentsEEENS8_INS_8FunctionEEE T
_ZN4Sass13Function_CallC2ENS_10SourceSpanENSt7__cxx1112basic_stringIcSt11char_traitsIcESaIcEEENS_10SharedImplINS_9ArgumentsEEEPv T
_ZN4Sass13Function_CallC2EPKS0_ T
_ZN4Sass13Function_CallD0Ev W
_ZN4Sass13Function_CallD1Ev W
_ZN4Sass13Function_CallD2Ev W
_ZN4Sass13get_main_unitENS_9UnitClassE T
_ZN4Sass13get_unit_typeENS_8UnitTypeE T
_ZN4Sass13Keyframe_Rule7performEPNS_9OperationINSt7__cxx1112basic_stringIcSt11char_traitsIcESaIcEEEEE W
_ZN4Sass13Keyframe_Rule7performEPNS_9OperationIP10Sass_ValueEE W
_ZN4Sass13Keyframe_Rule7performEPNS_9OperationIPNS_10ExpressionEEE W
_ZN4Sass13Keyframe_Rule7performEPNS_9OperationIPNS_17SupportsConditionEEE W
_ZN4Sass13Keyframe_Rule7performEPNS_9OperationIPNS_5ValueEEE W
_ZN4Sass13Keyframe_Rule7performEPNS_9OperationIPNS_8AST_NodeEEE W
_ZN4Sass13Keyframe_Rule7performEPNS_9OperationIPNS_8SelectorEEE W
_ZN4Sass13Keyframe_Rule7performEPNS_9OperationIPNS_9StatementEEE W
_ZN4Sass13Keyframe_Rule7performEPNS_9OperationIvEE W
_ZN4Sass13Keyframe_RuleC1ENS_10SourceSpanENS_10SharedImplINS_5BlockEEE T
_ZN4Sass13Keyframe_RuleC1EPKS0_ T
_ZN4Sass13Keyframe_RuleC2ENS_10SourceSpanENS_10SharedImplINS_5BlockEEE T
_ZN4Sass13Keyframe_RuleC2EPKS0_ T
_ZN4Sass13Keyframe_RuleD0Ev W
_ZN4Sass13Keyframe_RuleD1Ev W
_ZN4Sass13Keyframe_RuleD2Ev W
_ZN4Sass13name_to_colorEPKc T
_ZN4Sass13name_to_colorERKNSt7__cxx1112basic_stringIcSt11char_traitsIcESaIcEEE T
_ZN4Sass13peek_linefeedEPKc T
_ZN4Sass13String_Quoted7performEPNS_9OperationINSt7__cxx1112basic_stringIcSt11char_traitsIcESaIcEEEEE W
_ZN4Sass13String_Quoted7performEPNS_9OperationIP10Sass_ValueEE W
_ZN4Sass13String_Quoted7performEPNS_9OperationIPNS_10ExpressionEEE W
_ZN4Sass13String_Quoted7performEPNS_9OperationIPNS_17SupportsConditionEEE W
_ZN4Sass13String_Quoted7performEPNS_9OperationIPNS_5ValueEEE W
_ZN4Sass13String_Quoted7performEPNS_9OperationIPNS_8AST_NodeEEE W
_ZN4Sass13String_Quoted7performEPNS_9OperationIPNS_8SelectorEEE W
_ZN4Sass13String_Quoted7performEPNS_9OperationIPNS_9StatementEEE W
_ZN4Sass13String_Quoted7performEPNS_9OperationIvEE W
_ZN4Sass13String_QuotedC1ENS_10SourceSpanENSt7__cxx1112basic_stringIcSt11char_traitsIcESaIcEEEcbbbb T
_ZN4Sass13String_QuotedC1EPKS0_ T
_ZN4Sass13String_QuotedC2ENS_10SourceSpanENSt7__cxx1112basic_stringIcSt11char_traitsIcESaIcEEEcbbbb T
_ZN4Sass13String_QuotedC2EPKS0_ T
_ZN4Sass13String_QuotedD0Ev W
_ZN4Sass13String_QuotedD1Ev W
_ZN4Sass13String_QuotedD2Ev W
_ZN4Sass13String_Schema11set_delayedEb T
_ZN4Sass13String_Schema16has_interpolantsEv T
_ZN4Sass13String_Schema5rtrimEv T
_ZN4Sass13String_Schema7performEPNS_9OperationINSt7__cxx1112basic_stringIcSt11char_traitsIcESaIcEEEEE W
_ZN4Sass13String_Schema7performEPNS_9OperationIP10Sass_ValueEE W
_ZN4Sass13String_Schema7performEPNS_9OperationIPNS_10ExpressionEEE W
_ZN4Sass13String_Schema7performEPNS_9OperationIPNS_17SupportsConditionEEE W
_ZN4Sass13String_Schema7performEPNS_9OperationIPNS_5ValueEEE W
_ZN4Sass13String_Schema7performEPNS_9OperationIPNS_8AST_NodeEEE W
_ZN4Sass13String_Schema7performEPNS_9OperationIPNS_8SelectorEEE W
_ZN4Sass13String_Schema7performEPNS_9OperationIPNS_9StatementEEE W
_ZN4Sass13String_Schema7performEPNS_9OperationIvEE W
_ZN4Sass13String_SchemaC1ENS_10SourceSpanEmb T
_ZN4Sass13String_SchemaC1EPKS0_ T
_ZN4Sass13String_SchemaC2ENS_10SourceSpanEmb T
_ZN4Sass13String_SchemaC2EPKS0_ T
_ZN4Sass13String_SchemaD0Ev W
_ZN4Sass13String_SchemaD1Ev W
_ZN4Sass13String_SchemaD2Ev W
_ZN4Sass13unit_to_classERKNSt7__cxx1112basic_stringIcSt11char_traitsIcESaIcEEE T
_ZN4Sass14Custom_Warning7performEPNS_9OperationINSt7__cxx1112basic_stringIcSt11char_traitsIcESaIcEEEEE W
_ZN4Sass14Custom_Warning7performEPNS_9OperationIP10Sass_ValueEE W
_ZN4Sass14Custom_Warning7performEPNS_9OperationIPNS_10ExpressionEEE W
_ZN4Sass14Custom_Warning7performEPNS_9OperationIPNS_17SupportsConditionEEE W
_ZN4Sass14Custom_Warning7performEPNS_9OperationIPNS_5ValueEEE W
_ZN4Sass14Custom_Warning7performEPNS_9OperationIPNS_8AST_NodeEEE W
_ZN4Sass14Custom_Warning7performEPNS_9OperationIPNS_8SelectorEEE W
_ZN4Sass14Custom_Warning7performEPNS_9OperationIPNS_9StatementEEE W
_ZN4Sass14Custom_Warning7performEPNS_9OperationIvEE W
_ZN4Sass14Custom_WarningC1ENS_10SourceSpanENSt7__cxx1112basic_stringIcSt11char_traitsIcESaIcEEE T
_ZN4Sass14Custom_WarningC1EPKS0_ T
_ZN4Sass14Custom_WarningC2ENS_10SourceSpanENSt7__cxx1112basic_stringIcSt11char_traitsIcESaIcEEE T
_ZN4Sass14Custom_WarningC2EPKS0_ T
_ZN4Sass14Custom_WarningD0Ev W
_ZN4Sass14Custom_WarningD1Ev W
_ZN4Sass14Custom_WarningD2Ev W
_ZN4Sass14getFirstIfRootERSt6vectorINS_10SharedImplINS_17SelectorComponentEEESaIS3_EE T
_ZN4Sass14get_unit_classB5cxx11ENS_8UnitTypeE T
_ZN4Sass14groupSelectorsERKSt6vectorINS_10SharedImplINS_17SelectorComponentEEESaIS3_EE T
_ZN4Sass14is_hex_doubletEd T
_ZN4Sass14lcsIdentityCmpINS_10SharedImplINS_17SelectorComponentEEEEEbRKT_S6_RS4_ W
_ZN4Sass14Operation_CRTPIP10Sass_ValueNS_5AST2CEEclEPNS_10AssignmentE W
_ZN4Sass14Operation_CRTPIP10Sass_ValueNS_5AST2CEEclEPNS_10AtRootRuleE W
_ZN4Sass14Operation_CRTPIP10Sass_ValueNS_5AST2CEEclEPNS_10DefinitionE W
_ZN4Sass14Operation_CRTPIP10Sass_ValueNS_5AST2CEEclEPNS_10ExtendRuleE W
_ZN4Sass14Operation_CRTPIP10Sass_ValueNS_5AST2CEEclEPNS_10IDSelectorE W
_ZN4Sass14Operation_CRTPIP10Sass_ValueNS_5AST2CEEclEPNS_10Mixin_CallE W
_ZN4Sass14Operation_CRTPIP10Sass_ValueNS_5AST2CEEclEPNS_10ParametersE W
_ZN4Sass14Operation_CRTPIP10Sass_ValueNS_5AST2CEEclEPNS_11DeclarationE W
_ZN4Sass14Operation_CRTPIP10Sass_ValueNS_5AST2CEEclEPNS_11Import_StubE W
_ZN4Sass14Operation_CRTPIP10Sass_ValueNS_5AST2CEEclEPNS_11Media_QueryE W
_ZN4Sass14Operation_CRTPIP10Sass_ValueNS_5AST2CEEclEPNS_11WarningRuleE W
_ZN4Sass14Operation_CRTPIP10Sass_ValueNS_5AST2CEEclEPNS_12CssMediaRuleE W
_ZN4Sass14Operation_CRTPIP10Sass_ValueNS_5AST2CEEclEPNS_12SelectorListE W
_ZN4Sass14Operation_CRTPIP10Sass_ValueNS_5AST2CEEclEPNS_12SupportsRuleE W
_ZN4Sass14Operation_CRTPIP10Sass_ValueNS_5AST2CEEclEPNS_12TypeSelectorE W
_ZN4Sass14Operation_CRTPIP10Sass_ValueNS_5AST2CEEclEPNS_13At_Root_QueryE W
_ZN4Sass14Operation_CRTPIP10Sass_ValueNS_5AST2CEEclEPNS_13ClassSelectorE W
_ZN4Sass14Operation_CRTPIP10Sass_ValueNS_5AST2CEEclEPNS_13CssMediaQueryE W
_ZN4Sass14Operation_CRTPIP10Sass_ValueNS_5AST2CEEclEPNS_13Function_CallE W
_ZN4Sass14Operation_CRTPIP10Sass_ValueNS_5AST2CEEclEPNS_13Keyframe_RuleE W
_ZN4Sass14Operation_CRTPIP10Sass_ValueNS_5AST2CEEclEPNS_13String_SchemaE W
_ZN4Sass14Operation_CRTPIP10Sass_ValueNS_5AST2CEEclEPNS_14PseudoSelectorE W
_ZN4Sass14Operation_CRTPIP10Sass_ValueNS_5AST2CEEclEPNS_15ComplexSelectorE W
_ZN4Sass14Operation_CRTPIP10Sass_ValueNS_5AST2CEEclEPNS_15Selector_SchemaE W
_ZN4Sass14Operation_CRTPIP10Sass_ValueNS_5AST2CEEclEPNS_16CompoundSelectorE W
_ZN4Sass14Operation_CRTPIP10Sass_ValueNS_5AST2CEEclEPNS_16Parent_ReferenceE W
_ZN4Sass14Operation_CRTPIP10Sass_ValueNS_5AST2CEEclEPNS_16SupportsNegationE W
_ZN4Sass14Operation_CRTPIP10Sass_ValueNS_5AST2CEEclEPNS_16Unary_ExpressionE W
_ZN4Sass14Operation_CRTPIP10Sass_ValueNS_5AST2CEEclEPNS_17AttributeSelectorE W
_ZN4Sass14Operation_CRTPIP10Sass_ValueNS_5AST2CEEclEPNS_17Binary_ExpressionE W
_ZN4Sass14Operation_CRTPIP10Sass_ValueNS_5AST2CEEclEPNS_17SelectorComponentE W
_ZN4Sass14Operation_CRTPIP10Sass_ValueNS_5AST2CEEclEPNS_17SupportsConditionE W
_ZN4Sass14Operation_CRTPIP10Sass_ValueNS_5AST2CEEclEPNS_17SupportsOperationE W
_ZN4Sass14Operation_CRTPIP10Sass_ValueNS_5AST2CEEclEPNS_18SelectorCombinatorE W
_ZN4Sass14Operation_CRTPIP10Sass_ValueNS_5AST2CEEclEPNS_19PlaceholderSelectorE W
_ZN4Sass14Operation_CRTPIP10Sass_ValueNS_5AST2CEEclEPNS_19SupportsDeclarationE W
_ZN4Sass14Operation_CRTPIP10Sass_ValueNS_5AST2CEEclEPNS_22Media_Query_ExpressionE W
_ZN4Sass14Operation_CRTPIP10Sass_ValueNS_5AST2CEEclEPNS_22Supports_InterpolationE W
_ZN4Sass14Operation_CRTPIP10Sass_ValueNS_5AST2CEEclEPNS_2IfE W
_ZN4Sass14Operation_CRTPIP10Sass_ValueNS_5AST2CEEclEPNS_5BlockE W
_ZN4Sass14Operation_CRTPIP10Sass_ValueNS_5AST2CEEclEPNS_5ColorE W
_ZN4Sass14Operation_CRTPIP10Sass_ValueNS_5AST2CEEclEPNS_5TraceE W
_ZN4Sass14Operation_CRTPIP10Sass_ValueNS_5AST2CEEclEPNS_6AtRuleE W
_ZN4Sass14Operation_CRTPIP10Sass_ValueNS_5AST2CEEclEPNS_6BubbleE W
_ZN4Sass14Operation_CRTPIP10Sass_ValueNS_5AST2CEEclEPNS_6ImportE W
_ZN4Sass14Operation_CRTPIP10Sass_ValueNS_5AST2CEEclEPNS_6ReturnE W
_ZN4Sass14Operation_CRTPIP10Sass_ValueNS_5AST2CEEclEPNS_7CommentE W
_ZN4Sass14Operation_CRTPIP10Sass_ValueNS_5AST2CEEclEPNS_7ContentE W
_ZN4Sass14Operation_CRTPIP10Sass_ValueNS_5AST2CEEclEPNS_7ForRuleE W
_ZN4Sass14Operation_CRTPIP10Sass_ValueNS_5AST2CEEclEPNS_8AST_NodeE W
_ZN4Sass14Operation_CRTPIP10Sass_ValueNS_5AST2CEEclEPNS_8EachRuleE W
_ZN4Sass14Operation_CRTPIP10Sass_ValueNS_5AST2CEEclEPNS_8FunctionE W
_ZN4Sass14Operation_CRTPIP10Sass_ValueNS_5AST2CEEclEPNS_8VariableE W
_ZN4Sass14Operation_CRTPIP10Sass_ValueNS_5AST2CEEclEPNS_9DebugRuleE W
_ZN4Sass14Operation_CRTPIP10Sass_ValueNS_5AST2CEEclEPNS_9ErrorRuleE W
_ZN4Sass14Operation_CRTPIP10Sass_ValueNS_5AST2CEEclEPNS_9MediaRuleE W
_ZN4Sass14Operation_CRTPIP10Sass_ValueNS_5AST2CEEclEPNS_9ParameterE W
_ZN4Sass14Operation_CRTPIP10Sass_ValueNS_5AST2CEEclEPNS_9StyleRuleE W
_ZN4Sass14Operation_CRTPIP10Sass_ValueNS_5AST2CEEclEPNS_9WhileRuleE W
_ZN4Sass14Operation_CRTPIPNS_10ExpressionENS_4EvalEEclEPNS_10AtRootRuleE W
_ZN4Sass14Operation_CRTPIPNS_10ExpressionENS_4EvalEEclEPNS_10DefinitionE W
_ZN4Sass14Operation_CRTPIPNS_10ExpressionENS_4EvalEEclEPNS_10ExtendRuleE W
_ZN4Sass14Operation_CRTPIPNS_10ExpressionENS_4EvalEEclEPNS_10Mixin_CallE W
_ZN4Sass14Operation_CRTPIPNS_10ExpressionENS_4EvalEEclEPNS_10ParametersE W
_ZN4Sass14Operation_CRTPIPNS_10ExpressionENS_4EvalEEclEPNS_11DeclarationE W
_ZN4Sass14Operation_CRTPIPNS_10ExpressionENS_4EvalEEclEPNS_11Import_StubE W
_ZN4Sass14Operation_CRTPIPNS_10ExpressionENS_4EvalEEclEPNS_12CssMediaRuleE W
_ZN4Sass14Operation_CRTPIPNS_10ExpressionENS_4EvalEEclEPNS_12Custom_ErrorE W
_ZN4Sass14Operation_CRTPIPNS_10ExpressionENS_4EvalEEclEPNS_12SupportsRuleE W
_ZN4Sass14Operation_CRTPIPNS_10ExpressionENS_4EvalEEclEPNS_13CssMediaQueryE W
_ZN4Sass14Operation_CRTPIPNS_10ExpressionENS_4EvalEEclEPNS_13Keyframe_RuleE W
_ZN4Sass14Operation_CRTPIPNS_10ExpressionENS_4EvalEEclEPNS_14Custom_WarningE W
_ZN4Sass14Operation_CRTPIPNS_10ExpressionENS_4EvalEEclEPNS_17SupportsConditionE W
_ZN4Sass14Operation_CRTPIPNS_10ExpressionENS_4EvalEEclEPNS_18SelectorCombinatorE W
_ZN4Sass14Operation_CRTPIPNS_10ExpressionENS_4EvalEEclEPNS_5ColorE W
_ZN4Sass14Operation_CRTPIPNS_10ExpressionENS_4EvalEEclEPNS_5TraceE W
_ZN4Sass14Operation_CRTPIPNS_10ExpressionENS_4EvalEEclEPNS_6AtRuleE W
_ZN4Sass14Operation_CRTPIPNS_10ExpressionENS_4EvalEEclEPNS_6BubbleE W
_ZN4Sass14Operation_CRTPIPNS_10ExpressionENS_4EvalEEclEPNS_6ImportE W
_ZN4Sass14Operation_CRTPIPNS_10ExpressionENS_4EvalEEclEPNS_7ContentE W
_ZN4Sass14Operation_CRTPIPNS_10ExpressionENS_4EvalEEclEPNS_8AST_NodeE W
_ZN4Sass14Operation_CRTPIPNS_10ExpressionENS_4EvalEEclEPNS_8FunctionE W
_ZN4Sass14Operation_CRTPIPNS_10ExpressionENS_4EvalEEclEPNS_9MediaRuleE W
_ZN4Sass14Operation_CRTPIPNS_10ExpressionENS_4EvalEEclEPNS_9ParameterE W
_ZN4Sass14Operation_CRTPIPNS_10ExpressionENS_4EvalEEclEPNS_9StyleRuleE W
_ZN4Sass14Operation_CRTPIPNS_10ExpressionENS_7ListizeEEclEPNS_10AssignmentE W
_ZN4Sass14Operation_CRTPIPNS_10ExpressionENS_7ListizeEEclEPNS_10AtRootRuleE W
_ZN4Sass14Operation_CRTPIPNS_10ExpressionENS_7ListizeEEclEPNS_10Color_HSLAE W
_ZN4Sass14Operation_CRTPIPNS_10ExpressionENS_7ListizeEEclEPNS_10Color_RGBAE W
_ZN4Sass14Operation_CRTPIPNS_10ExpressionENS_7ListizeEEclEPNS_10DefinitionE W
_ZN4Sass14Operation_CRTPIPNS_10ExpressionENS_7ListizeEEclEPNS_10ExtendRuleE W
_ZN4Sass14Operation_CRTPIPNS_10ExpressionENS_7ListizeEEclEPNS_10IDSelectorE W
_ZN4Sass14Operation_CRTPIPNS_10ExpressionENS_7ListizeEEclEPNS_10Mixin_CallE W
_ZN4Sass14Operation_CRTPIPNS_10ExpressionENS_7ListizeEEclEPNS_10ParametersE W
_ZN4Sass14Operation_CRTPIPNS_10ExpressionENS_7ListizeEEclEPNS_11DeclarationE W
_ZN4Sass14Operation_CRTPIPNS_10ExpressionENS_7ListizeEEclEPNS_11Import_StubE W
_ZN4Sass14Operation_CRTPIPNS_10ExpressionENS_7ListizeEEclEPNS_11Media_QueryE W
_ZN4Sass14Operation_CRTPIPNS_10ExpressionENS_7ListizeEEclEPNS_11WarningRuleE W
_ZN4Sass14Operation_CRTPIPNS_10ExpressionENS_7ListizeEEclEPNS_12CssMediaRuleE W
_ZN4Sass14Operation_CRTPIPNS_10ExpressionENS_7ListizeEEclEPNS_12Custom_ErrorE W
_ZN4Sass14Operation_CRTPIPNS_10ExpressionENS_7ListizeEEclEPNS_12SupportsRuleE W
_ZN4Sass14Operation_CRTPIPNS_10ExpressionENS_7ListizeEEclEPNS_12TypeSelectorE W
_ZN4Sass14Operation_CRTPIPNS_10ExpressionENS_7ListizeEEclEPNS_13At_Root_QueryE W
_ZN4Sass14Operation_CRTPIPNS_10ExpressionENS_7ListizeEEclEPNS_13ClassSelectorE W
_ZN4Sass14Operation_CRTPIPNS_10ExpressionENS_7ListizeEEclEPNS_13CssMediaQueryE W
_ZN4Sass14Operation_CRTPIPNS_10ExpressionENS_7ListizeEEclEPNS_13Function_CallE W
_ZN4Sass14Operation_CRTPIPNS_10ExpressionENS_7ListizeEEclEPNS_13Keyframe_RuleE W
_ZN4Sass14Operation_CRTPIPNS_10ExpressionENS_7ListizeEEclEPNS_13String_QuotedE W
_ZN4Sass14Operation_CRTPIPNS_10ExpressionENS_7ListizeEEclEPNS_13String_SchemaE W
_ZN4Sass14Operation_CRTPIPNS_10ExpressionENS_7ListizeEEclEPNS_14Custom_WarningE W
_ZN4Sass14Operation_CRTPIPNS_10ExpressionENS_7ListizeEEclEPNS_14PseudoSelectorE W
_ZN4Sass14Operation_CRTPIPNS_10ExpressionENS_7ListizeEEclEPNS_15Selector_SchemaE W
_ZN4Sass14Operation_CRTPIPNS_10ExpressionENS_7ListizeEEclEPNS_15String_ConstantE W
_ZN4Sass14Operation_CRTPIPNS_10ExpressionENS_7ListizeEEclEPNS_16Parent_ReferenceE W
_ZN4Sass14Operation_CRTPIPNS_10ExpressionENS_7ListizeEEclEPNS_16SupportsNegationE W
_ZN4Sass14Operation_CRTPIPNS_10ExpressionENS_7ListizeEEclEPNS_16Unary_ExpressionE W
_ZN4Sass14Operation_CRTPIPNS_10ExpressionENS_7ListizeEEclEPNS_17AttributeSelectorE W
_ZN4Sass14Operation_CRTPIPNS_10ExpressionENS_7ListizeEEclEPNS_17Binary_ExpressionE W
_ZN4Sass14Operation_CRTPIPNS_10ExpressionENS_7ListizeEEclEPNS_17SelectorComponentE W
_ZN4Sass14Operation_CRTPIPNS_10ExpressionENS_7ListizeEEclEPNS_17SupportsConditionE W
_ZN4Sass14Operation_CRTPIPNS_10ExpressionENS_7ListizeEEclEPNS_17SupportsOperationE W
_ZN4Sass14Operation_CRTPIPNS_10ExpressionENS_7ListizeEEclEPNS_18SelectorCombinatorE W
_ZN4Sass14Operation_CRTPIPNS_10ExpressionENS_7ListizeEEclEPNS_19PlaceholderSelectorE W
_ZN4Sass14Operation_CRTPIPNS_10ExpressionENS_7ListizeEEclEPNS_19SupportsDeclarationE W
_ZN4Sass14Operation_CRTPIPNS_10ExpressionENS_7ListizeEEclEPNS_22Media_Query_ExpressionE W
_ZN4Sass14Operation_CRTPIPNS_10ExpressionENS_7ListizeEEclEPNS_22Supports_InterpolationE W
_ZN4Sass14Operation_CRTPIPNS_10ExpressionENS_7ListizeEEclEPNS_2IfE W
_ZN4Sass14Operation_CRTPIPNS_10ExpressionENS_7ListizeEEclEPNS_3MapE W
_ZN4Sass14Operation_CRTPIPNS_10ExpressionENS_7ListizeEEclEPNS_4ListE W
_ZN4Sass14Operation_CRTPIPNS_10ExpressionENS_7ListizeEEclEPNS_4NullE W
_ZN4Sass14Operation_CRTPIPNS_10ExpressionENS_7ListizeEEclEPNS_5BlockE W
_ZN4Sass14Operation_CRTPIPNS_10ExpressionENS_7ListizeEEclEPNS_5ColorE W
_ZN4Sass14Operation_CRTPIPNS_10ExpressionENS_7ListizeEEclEPNS_5TraceE W
_ZN4Sass14Operation_CRTPIPNS_10ExpressionENS_7ListizeEEclEPNS_6AtRuleE W
_ZN4Sass14Operation_CRTPIPNS_10ExpressionENS_7ListizeEEclEPNS_6BubbleE W
_ZN4Sass14Operation_CRTPIPNS_10ExpressionENS_7ListizeEEclEPNS_6ImportE W
_ZN4Sass14Operation_CRTPIPNS_10ExpressionENS_7ListizeEEclEPNS_6NumberE W
_ZN4Sass14Operation_CRTPIPNS_10ExpressionENS_7ListizeEEclEPNS_6ReturnE W
_ZN4Sass14Operation_CRTPIPNS_10ExpressionENS_7ListizeEEclEPNS_7BooleanE W
_ZN4Sass14Operation_CRTPIPNS_10ExpressionENS_7ListizeEEclEPNS_7CommentE W
_ZN4Sass14Operation_CRTPIPNS_10ExpressionENS_7ListizeEEclEPNS_7ContentE W
_ZN4Sass14Operation_CRTPIPNS_10ExpressionENS_7ListizeEEclEPNS_7ForRuleE W
_ZN4Sass14Operation_CRTPIPNS_10ExpressionENS_7ListizeEEclEPNS_8ArgumentE W
_ZN4Sass14Operation_CRTPIPNS_10ExpressionENS_7ListizeEEclEPNS_8AST_NodeE W
_ZN4Sass14Operation_CRTPIPNS_10ExpressionENS_7ListizeEEclEPNS_8EachRuleE W
_ZN4Sass14Operation_CRTPIPNS_10ExpressionENS_7ListizeEEclEPNS_8FunctionE W
_ZN4Sass14Operation_CRTPIPNS_10ExpressionENS_7ListizeEEclEPNS_8VariableE W
_ZN4Sass14Operation_CRTPIPNS_10ExpressionENS_7ListizeEEclEPNS_9ArgumentsE W
_ZN4Sass14Operation_CRTPIPNS_10ExpressionENS_7ListizeEEclEPNS_9DebugRuleE W
_ZN4Sass14Operation_CRTPIPNS_10ExpressionENS_7ListizeEEclEPNS_9ErrorRuleE W
_ZN4Sass14Operation_CRTPIPNS_10ExpressionENS_7ListizeEEclEPNS_9MediaRuleE W
_ZN4Sass14Operation_CRTPIPNS_10ExpressionENS_7ListizeEEclEPNS_9ParameterE W
_ZN4Sass14Operation_CRTPIPNS_10ExpressionENS_7ListizeEEclEPNS_9StyleRuleE W
_ZN4Sass14Operation_CRTPIPNS_10ExpressionENS_7ListizeEEclEPNS_9WhileRuleE W
_ZN4Sass14Operation_CRTPIPNS_5ValueENS_8To_ValueEE8fallbackIPNS_10AssignmentEEES2_T_ W
_ZN4Sass14Operation_CRTPIPNS_5ValueENS_8To_ValueEE8fallbackIPNS_10AtRootRuleEEES2_T_ W
_ZN4Sass14Operation_CRTPIPNS_5ValueENS_8To_ValueEE8fallbackIPNS_10DefinitionEEES2_T_ W
_ZN4Sass14Operation_CRTPIPNS_5ValueENS_8To_ValueEE8fallbackIPNS_10ExtendRuleEEES2_T_ W
_ZN4Sass14Operation_CRTPIPNS_5ValueENS_8To_ValueEE8fallbackIPNS_10IDSelectorEEES2_T_ W
_ZN4Sass14Operation_CRTPIPNS_5ValueENS_8To_ValueEE8fallbackIPNS_10Mixin_CallEEES2_T_ W
_ZN4Sass14Operation_CRTPIPNS_5ValueENS_8To_ValueEE8fallbackIPNS_10ParametersEEES2_T_ W
_ZN4Sass14Operation_CRTPIPNS_5ValueENS_8To_ValueEE8fallbackIPNS_11DeclarationEEES2_T_ W
_ZN4Sass14Operation_CRTPIPNS_5ValueENS_8To_ValueEE8fallbackIPNS_11Import_StubEEES2_T_ W
_ZN4Sass14Operation_CRTPIPNS_5ValueENS_8To_ValueEE8fallbackIPNS_11Media_QueryEEES2_T_ W
_ZN4Sass14Operation_CRTPIPNS_5ValueENS_8To_ValueEE8fallbackIPNS_11WarningRuleEEES2_T_ W
_ZN4Sass14Operation_CRTPIPNS_5ValueENS_8To_ValueEE8fallbackIPNS_12CssMediaRuleEEES2_T_ W
_ZN4Sass14Operation_CRTPIPNS_5ValueENS_8To_ValueEE8fallbackIPNS_12SupportsRuleEEES2_T_ W
_ZN4Sass14Operation_CRTPIPNS_5ValueENS_8To_ValueEE8fallbackIPNS_12TypeSelectorEEES2_T_ W
_ZN4Sass14Operation_CRTPIPNS_5ValueENS_8To_ValueEE8fallbackIPNS_13At_Root_QueryEEES2_T_ W
_ZN4Sass14Operation_CRTPIPNS_5ValueENS_8To_ValueEE8fallbackIPNS_13ClassSelectorEEES2_T_ W
_ZN4Sass14Operation_CRTPIPNS_5ValueENS_8To_ValueEE8fallbackIPNS_13CssMediaQueryEEES2_T_ W
_ZN4Sass14Operation_CRTPIPNS_5ValueENS_8To_ValueEE8fallbackIPNS_13Function_CallEEES2_T_ W
_ZN4Sass14Operation_CRTPIPNS_5ValueENS_8To_ValueEE8fallbackIPNS_13Keyframe_RuleEEES2_T_ W
_ZN4Sass14Operation_CRTPIPNS_5ValueENS_8To_ValueEE8fallbackIPNS_13String_SchemaEEES2_T_ W
_ZN4Sass14Operation_CRTPIPNS_5ValueENS_8To_ValueEE8fallbackIPNS_14PseudoSelectorEEES2_T_ W
_ZN4Sass14Operation_CRTPIPNS_5ValueENS_8To_ValueEE8fallbackIPNS_15ComplexSelectorEEES2_T_ W
_ZN4Sass14Operation_CRTPIPNS_5ValueENS_8To_ValueEE8fallbackIPNS_15Selector_SchemaEEES2_T_ W
_ZN4Sass14Operation_CRTPIPNS_5ValueENS_8To_ValueEE8fallbackIPNS_16CompoundSelectorEEES2_T_ W
_ZN4Sass14Operation_CRTPIPNS_5ValueENS_8To_ValueEE8fallbackIPNS_16Parent_ReferenceEEES2_T_ W
_ZN4Sass14Operation_CRTPIPNS_5ValueENS_8To_ValueEE8fallbackIPNS_16SupportsNegationEEES2_T_ W
_ZN4Sass14Operation_CRTPIPNS_5ValueENS_8To_ValueEE8fallbackIPNS_16Unary_ExpressionEEES2_T_ W
_ZN4Sass14Operation_CRTPIPNS_5ValueENS_8To_ValueEE8fallbackIPNS_17AttributeSelectorEEES2_T_ W
_ZN4Sass14Operation_CRTPIPNS_5ValueENS_8To_ValueEE8fallbackIPNS_17SelectorComponentEEES2_T_ W
_ZN4Sass14Operation_CRTPIPNS_5ValueENS_8To_ValueEE8fallbackIPNS_17SupportsConditionEEES2_T_ W
_ZN4Sass14Operation_CRTPIPNS_5ValueENS_8To_ValueEE8fallbackIPNS_17SupportsOperationEEES2_T_ W
_ZN4Sass14Operation_CRTPIPNS_5ValueENS_8To_ValueEE8fallbackIPNS_18SelectorCombinatorEEES2_T_ W
_ZN4Sass14Operation_CRTPIPNS_5ValueENS_8To_ValueEE8fallbackIPNS_19PlaceholderSelectorEEES2_T_ W
_ZN4Sass14Operation_CRTPIPNS_5ValueENS_8To_ValueEE8fallbackIPNS_19SupportsDeclarationEEES2_T_ W
_ZN4Sass14Operation_CRTPIPNS_5ValueENS_8To_ValueEE8fallbackIPNS_22Media_Query_ExpressionEEES2_T_ W
_ZN4Sass14Operation_CRTPIPNS_5ValueENS_8To_ValueEE8fallbackIPNS_22Supports_InterpolationEEES2_T_ W
_ZN4Sass14Operation_CRTPIPNS_5ValueENS_8To_ValueEE8fallbackIPNS_2IfEEES2_T_ W
_ZN4Sass14Operation_CRTPIPNS_5ValueENS_8To_ValueEE8fallbackIPNS_5BlockEEES2_T_ W
_ZN4Sass14Operation_CRTPIPNS_5ValueENS_8To_ValueEE8fallbackIPNS_5ColorEEES2_T_ W
_ZN4Sass14Operation_CRTPIPNS_5ValueENS_8To_ValueEE8fallbackIPNS_5TraceEEES2_T_ W
_ZN4Sass14Operation_CRTPIPNS_5ValueENS_8To_ValueEE8fallbackIPNS_6AtRuleEEES2_T_ W
_ZN4Sass14Operation_CRTPIPNS_5ValueENS_8To_ValueEE8fallbackIPNS_6BubbleEEES2_T_ W
_ZN4Sass14Operation_CRTPIPNS_5ValueENS_8To_ValueEE8fallbackIPNS_6ImportEEES2_T_ W
_ZN4Sass14Operation_CRTPIPNS_5ValueENS_8To_ValueEE8fallbackIPNS_6ReturnEEES2_T_ W
_ZN4Sass14Operation_CRTPIPNS_5ValueENS_8To_ValueEE8fallbackIPNS_7CommentEEES2_T_ W
_ZN4Sass14Operation_CRTPIPNS_5ValueENS_8To_ValueEE8fallbackIPNS_7ContentEEES2_T_ W
_ZN4Sass14Operation_CRTPIPNS_5ValueENS_8To_ValueEE8fallbackIPNS_7ForRuleEEES2_T_ W
_ZN4Sass14Operation_CRTPIPNS_5ValueENS_8To_ValueEE8fallbackIPNS_8AST_NodeEEES2_T_ W
_ZN4Sass14Operation_CRTPIPNS_5ValueENS_8To_ValueEE8fallbackIPNS_8EachRuleEEES2_T_ W
_ZN4Sass14Operation_CRTPIPNS_5ValueENS_8To_ValueEE8fallbackIPNS_8VariableEEES2_T_ W
_ZN4Sass14Operation_CRTPIPNS_5ValueENS_8To_ValueEE8fallbackIPNS_9ArgumentsEEES2_T_ W
_ZN4Sass14Operation_CRTPIPNS_5ValueENS_8To_ValueEE8fallbackIPNS_9DebugRuleEEES2_T_ W
_ZN4Sass14Operation_CRTPIPNS_5ValueENS_8To_ValueEE8fallbackIPNS_9ErrorRuleEEES2_T_ W
_ZN4Sass14Operation_CRTPIPNS_5ValueENS_8To_ValueEE8fallbackIPNS_9MediaRuleEEES2_T_ W
_ZN4Sass14Operation_CRTPIPNS_5ValueENS_8To_ValueEE8fallbackIPNS_9ParameterEEES2_T_ W
_ZN4Sass14Operation_CRTPIPNS_5ValueENS_8To_ValueEE8fallbackIPNS_9StyleRuleEEES2_T_ W
_ZN4Sass14Operation_CRTPIPNS_5ValueENS_8To_ValueEE8fallbackIPNS_9WhileRuleEEES2_T_ W
_ZN4Sass14Operation_CRTPIPNS_5ValueENS_8To_ValueEEclEPNS_10AssignmentE W
_ZN4Sass14Operation_CRTPIPNS_5ValueENS_8To_ValueEEclEPNS_10AtRootRuleE W
_ZN4Sass14Operation_CRTPIPNS_5ValueENS_8To_ValueEEclEPNS_10DefinitionE W
_ZN4Sass14Operation_CRTPIPNS_5ValueENS_8To_ValueEEclEPNS_10ExtendRuleE W
_ZN4Sass14Operation_CRTPIPNS_5ValueENS_8To_ValueEEclEPNS_10IDSelectorE W
_ZN4Sass14Operation_CRTPIPNS_5ValueENS_8To_ValueEEclEPNS_10Mixin_CallE W
_ZN4Sass14Operation_CRTPIPNS_5ValueENS_8To_ValueEEclEPNS_10ParametersE W
_ZN4Sass14Operation_CRTPIPNS_5ValueENS_8To_ValueEEclEPNS_11DeclarationE W
_ZN4Sass14Operation_CRTPIPNS_5ValueENS_8To_ValueEEclEPNS_11Import_StubE W
_ZN4Sass14Operation_CRTPIPNS_5ValueENS_8To_ValueEEclEPNS_11Media_QueryE W
_ZN4Sass14Operation_CRTPIPNS_5ValueENS_8To_ValueEEclEPNS_11WarningRuleE W
_ZN4Sass14Operation_CRTPIPNS_5ValueENS_8To_ValueEEclEPNS_12CssMediaRuleE W
_ZN4Sass14Operation_CRTPIPNS_5ValueENS_8To_ValueEEclEPNS_12SupportsRuleE W
_ZN4Sass14Operation_CRTPIPNS_5ValueENS_8To_ValueEEclEPNS_12TypeSelectorE W
_ZN4Sass14Operation_CRTPIPNS_5ValueENS_8To_ValueEEclEPNS_13At_Root_QueryE W
_ZN4Sass14Operation_CRTPIPNS_5ValueENS_8To_ValueEEclEPNS_13ClassSelectorE W
_ZN4Sass14Operation_CRTPIPNS_5ValueENS_8To_ValueEEclEPNS_13CssMediaQueryE W
_ZN4Sass14Operation_CRTPIPNS_5ValueENS_8To_ValueEEclEPNS_13Function_CallE W
_ZN4Sass14Operation_CRTPIPNS_5ValueENS_8To_ValueEEclEPNS_13Keyframe_RuleE W
_ZN4Sass14Operation_CRTPIPNS_5ValueENS_8To_ValueEEclEPNS_13String_SchemaE W
_ZN4Sass14Operation_CRTPIPNS_5ValueENS_8To_ValueEEclEPNS_14PseudoSelectorE W
_ZN4Sass14Operation_CRTPIPNS_5ValueENS_8To_ValueEEclEPNS_15ComplexSelectorE W
_ZN4Sass14Operation_CRTPIPNS_5ValueENS_8To_ValueEEclEPNS_15Selector_SchemaE W
_ZN4Sass14Operation_CRTPIPNS_5ValueENS_8To_ValueEEclEPNS_16CompoundSelectorE W
_ZN4Sass14Operation_CRTPIPNS_5ValueENS_8To_ValueEEclEPNS_16Parent_ReferenceE W
_ZN4Sass14Operation_CRTPIPNS_5ValueENS_8To_ValueEEclEPNS_16SupportsNegationE W
_ZN4Sass14Operation_CRTPIPNS_5ValueENS_8To_ValueEEclEPNS_16Unary_ExpressionE W
_ZN4Sass14Operation_CRTPIPNS_5ValueENS_8To_ValueEEclEPNS_17AttributeSelectorE W
_ZN4Sass14Operation_CRTPIPNS_5ValueENS_8To_ValueEEclEPNS_17SelectorComponentE W
_ZN4Sass14Operation_CRTPIPNS_5ValueENS_8To_ValueEEclEPNS_17SupportsConditionE W
_ZN4Sass14Operation_CRTPIPNS_5ValueENS_8To_ValueEEclEPNS_17SupportsOperationE W
_ZN4Sass14Operation_CRTPIPNS_5ValueENS_8To_ValueEEclEPNS_18SelectorCombinatorE W
_ZN4Sass14Operation_CRTPIPNS_5ValueENS_8To_ValueEEclEPNS_19PlaceholderSelectorE W
_ZN4Sass14Operation_CRTPIPNS_5ValueENS_8To_ValueEEclEPNS_19SupportsDeclarationE W
_ZN4Sass14Operation_CRTPIPNS_5ValueENS_8To_ValueEEclEPNS_22Media_Query_ExpressionE W
_ZN4Sass14Operation_CRTPIPNS_5ValueENS_8To_ValueEEclEPNS_22Supports_InterpolationE W
_ZN4Sass14Operation_CRTPIPNS_5ValueENS_8To_ValueEEclEPNS_2IfE W
_ZN4Sass14Operation_CRTPIPNS_5ValueENS_8To_ValueEEclEPNS_5BlockE W
_ZN4Sass14Operation_CRTPIPNS_5ValueENS_8To_ValueEEclEPNS_5ColorE W
_ZN4Sass14Operation_CRTPIPNS_5ValueENS_8To_ValueEEclEPNS_5TraceE W
_ZN4Sass14Operation_CRTPIPNS_5ValueENS_8To_ValueEEclEPNS_6AtRuleE W
_ZN4Sass14Operation_CRTPIPNS_5ValueENS_8To_ValueEEclEPNS_6BubbleE W
_ZN4Sass14Operation_CRTPIPNS_5ValueENS_8To_ValueEEclEPNS_6ImportE W
_ZN4Sass14Operation_CRTPIPNS_5ValueENS_8To_ValueEEclEPNS_6ReturnE W
_ZN4Sass14Operation_CRTPIPNS_5ValueENS_8To_ValueEEclEPNS_7CommentE W
_ZN4Sass14Operation_CRTPIPNS_5ValueENS_8To_ValueEEclEPNS_7ContentE W
_ZN4Sass14Operation_CRTPIPNS_5ValueENS_8To_ValueEEclEPNS_7ForRuleE W
_ZN4Sass14Operation_CRTPIPNS_5ValueENS_8To_ValueEEclEPNS_8AST_NodeE W
_ZN4Sass14Operation_CRTPIPNS_5ValueENS_8To_ValueEEclEPNS_8EachRuleE W
_ZN4Sass14Operation_CRTPIPNS_5ValueENS_8To_ValueEEclEPNS_8VariableE W
_ZN4Sass14Operation_CRTPIPNS_5ValueENS_8To_ValueEEclEPNS_9ArgumentsE W
_ZN4Sass14Operation_CRTPIPNS_5ValueENS_8To_ValueEEclEPNS_9DebugRuleE W
_ZN4Sass14Operation_CRTPIPNS_5ValueENS_8To_ValueEEclEPNS_9ErrorRuleE W
_ZN4Sass14Operation_CRTPIPNS_5ValueENS_8To_ValueEEclEPNS_9MediaRuleE W
_ZN4Sass14Operation_CRTPIPNS_5ValueENS_8To_ValueEEclEPNS_9ParameterE W
_ZN4Sass14Operation_CRTPIPNS_5ValueENS_8To_ValueEEclEPNS_9StyleRuleE W
_ZN4Sass14Operation_CRTPIPNS_5ValueENS_8To_ValueEEclEPNS_9WhileRuleE W
_ZN4Sass14Operation_CRTPIPNS_9StatementENS_12CheckNestingEEclEPNS_10AssignmentE W
_ZN4Sass14Operation_CRTPIPNS_9StatementENS_12CheckNestingEEclEPNS_10AtRootRuleE W
_ZN4Sass14Operation_CRTPIPNS_9StatementENS_12CheckNestingEEclEPNS_10Color_HSLAE W
_ZN4Sass14Operation_CRTPIPNS_9StatementENS_12CheckNestingEEclEPNS_10Color_RGBAE W
_ZN4Sass14Operation_CRTPIPNS_9StatementENS_12CheckNestingEEclEPNS_10ExtendRuleE W
_ZN4Sass14Operation_CRTPIPNS_9StatementENS_12CheckNestingEEclEPNS_10IDSelectorE W
_ZN4Sass14Operation_CRTPIPNS_9StatementENS_12CheckNestingEEclEPNS_10Mixin_CallE W
_ZN4Sass14Operation_CRTPIPNS_9StatementENS_12CheckNestingEEclEPNS_10ParametersE W
_ZN4Sass14Operation_CRTPIPNS_9StatementENS_12CheckNestingEEclEPNS_11DeclarationE W
_ZN4Sass14Operation_CRTPIPNS_9StatementENS_12CheckNestingEEclEPNS_11Import_StubE W
_ZN4Sass14Operation_CRTPIPNS_9StatementENS_12CheckNestingEEclEPNS_11Media_QueryE W
_ZN4Sass14Operation_CRTPIPNS_9StatementENS_12CheckNestingEEclEPNS_11WarningRuleE W
_ZN4Sass14Operation_CRTPIPNS_9StatementENS_12CheckNestingEEclEPNS_12CssMediaRuleE W
_ZN4Sass14Operation_CRTPIPNS_9StatementENS_12CheckNestingEEclEPNS_12Custom_ErrorE W
_ZN4Sass14Operation_CRTPIPNS_9StatementENS_12CheckNestingEEclEPNS_12SelectorListE W
_ZN4Sass14Operation_CRTPIPNS_9StatementENS_12CheckNestingEEclEPNS_12SupportsRuleE W
_ZN4Sass14Operation_CRTPIPNS_9StatementENS_12CheckNestingEEclEPNS_12TypeSelectorE W
_ZN4Sass14Operation_CRTPIPNS_9StatementENS_12CheckNestingEEclEPNS_13At_Root_QueryE W
_ZN4Sass14Operation_CRTPIPNS_9StatementENS_12CheckNestingEEclEPNS_13ClassSelectorE W
_ZN4Sass14Operation_CRTPIPNS_9StatementENS_12CheckNestingEEclEPNS_13CssMediaQueryE W
_ZN4Sass14Operation_CRTPIPNS_9StatementENS_12CheckNestingEEclEPNS_13Function_CallE W
_ZN4Sass14Operation_CRTPIPNS_9StatementENS_12CheckNestingEEclEPNS_13Keyframe_RuleE W
_ZN4Sass14Operation_CRTPIPNS_9StatementENS_12CheckNestingEEclEPNS_13String_QuotedE W
_ZN4Sass14Operation_CRTPIPNS_9StatementENS_12CheckNestingEEclEPNS_13String_SchemaE W
_ZN4Sass14Operation_CRTPIPNS_9StatementENS_12CheckNestingEEclEPNS_14Custom_WarningE W
_ZN4Sass14Operation_CRTPIPNS_9StatementENS_12CheckNestingEEclEPNS_14PseudoSelectorE W
_ZN4Sass14Operation_CRTPIPNS_9StatementENS_12CheckNestingEEclEPNS_15ComplexSelectorE W
_ZN4Sass14Operation_CRTPIPNS_9StatementENS_12CheckNestingEEclEPNS_15Selector_SchemaE W
_ZN4Sass14Operation_CRTPIPNS_9StatementENS_12CheckNestingEEclEPNS_15String_ConstantE W
_ZN4Sass14Operation_CRTPIPNS_9StatementENS_12CheckNestingEEclEPNS_16CompoundSelectorE W
_ZN4Sass14Operation_CRTPIPNS_9StatementENS_12CheckNestingEEclEPNS_16Parent_ReferenceE W
_ZN4Sass14Operation_CRTPIPNS_9StatementENS_12CheckNestingEEclEPNS_16SupportsNegationE W
_ZN4Sass14Operation_CRTPIPNS_9StatementENS_12CheckNestingEEclEPNS_16Unary_ExpressionE W
_ZN4Sass14Operation_CRTPIPNS_9StatementENS_12CheckNestingEEclEPNS_17AttributeSelectorE W
_ZN4Sass14Operation_CRTPIPNS_9StatementENS_12CheckNestingEEclEPNS_17Binary_ExpressionE W
_ZN4Sass14Operation_CRTPIPNS_9StatementENS_12CheckNestingEEclEPNS_17SelectorComponentE W
_ZN4Sass14Operation_CRTPIPNS_9StatementENS_12CheckNestingEEclEPNS_17SupportsConditionE W
_ZN4Sass14Operation_CRTPIPNS_9StatementENS_12CheckNestingEEclEPNS_17SupportsOperationE W
_ZN4Sass14Operation_CRTPIPNS_9StatementENS_12CheckNestingEEclEPNS_18SelectorCombinatorE W
_ZN4Sass14Operation_CRTPIPNS_9StatementENS_12CheckNestingEEclEPNS_19PlaceholderSelectorE W
_ZN4Sass14Operation_CRTPIPNS_9StatementENS_12CheckNestingEEclEPNS_19SupportsDeclarationE W
_ZN4Sass14Operation_CRTPIPNS_9StatementENS_12CheckNestingEEclEPNS_22Media_Query_ExpressionE W
_ZN4Sass14Operation_CRTPIPNS_9StatementENS_12CheckNestingEEclEPNS_22Supports_InterpolationE W
_ZN4Sass14Operation_CRTPIPNS_9StatementENS_12CheckNestingEEclEPNS_3MapE W
_ZN4Sass14Operation_CRTPIPNS_9StatementENS_12CheckNestingEEclEPNS_4ListE W
_ZN4Sass14Operation_CRTPIPNS_9StatementENS_12CheckNestingEEclEPNS_4NullE W
_ZN4Sass14Operation_CRTPIPNS_9StatementENS_12CheckNestingEEclEPNS_5ColorE W
_ZN4Sass14Operation_CRTPIPNS_9StatementENS_12CheckNestingEEclEPNS_5TraceE W
_ZN4Sass14Operation_CRTPIPNS_9StatementENS_12CheckNestingEEclEPNS_6AtRuleE W
_ZN4Sass14Operation_CRTPIPNS_9StatementENS_12CheckNestingEEclEPNS_6BubbleE W
_ZN4Sass14Operation_CRTPIPNS_9StatementENS_12CheckNestingEEclEPNS_6ImportE W
_ZN4Sass14Operation_CRTPIPNS_9StatementENS_12CheckNestingEEclEPNS_6NumberE W
_ZN4Sass14Operation_CRTPIPNS_9StatementENS_12CheckNestingEEclEPNS_6ReturnE W
_ZN4Sass14Operation_CRTPIPNS_9StatementENS_12CheckNestingEEclEPNS_7BooleanE W
_ZN4Sass14Operation_CRTPIPNS_9StatementENS_12CheckNestingEEclEPNS_7CommentE W
_ZN4Sass14Operation_CRTPIPNS_9StatementENS_12CheckNestingEEclEPNS_7ContentE W
_ZN4Sass14Operation_CRTPIPNS_9StatementENS_12CheckNestingEEclEPNS_7ForRuleE W
_ZN4Sass14Operation_CRTPIPNS_9StatementENS_12CheckNestingEEclEPNS_8ArgumentE W
_ZN4Sass14Operation_CRTPIPNS_9StatementENS_12CheckNestingEEclEPNS_8AST_NodeE W
_ZN4Sass14Operation_CRTPIPNS_9StatementENS_12CheckNestingEEclEPNS_8EachRuleE W
_ZN4Sass14Operation_CRTPIPNS_9StatementENS_12CheckNestingEEclEPNS_8FunctionE W
_ZN4Sass14Operation_CRTPIPNS_9StatementENS_12CheckNestingEEclEPNS_8VariableE W
_ZN4Sass14Operation_CRTPIPNS_9StatementENS_12CheckNestingEEclEPNS_9ArgumentsE W
_ZN4Sass14Operation_CRTPIPNS_9StatementENS_12CheckNestingEEclEPNS_9DebugRuleE W
_ZN4Sass14Operation_CRTPIPNS_9StatementENS_12CheckNestingEEclEPNS_9ErrorRuleE W
_ZN4Sass14Operation_CRTPIPNS_9StatementENS_12CheckNestingEEclEPNS_9MediaRuleE W
_ZN4Sass14Operation_CRTPIPNS_9StatementENS_12CheckNestingEEclEPNS_9ParameterE W
_ZN4Sass14Operation_CRTPIPNS_9StatementENS_12CheckNestingEEclEPNS_9StyleRuleE W
_ZN4Sass14Operation_CRTPIPNS_9StatementENS_12CheckNestingEEclEPNS_9WhileRuleE W
_ZN4Sass14Operation_CRTPIPNS_9StatementENS_6CssizeEEclEPNS_10AssignmentE W
_ZN4Sass14Operation_CRTPIPNS_9StatementENS_6CssizeEEclEPNS_10Color_HSLAE W
_ZN4Sass14Operation_CRTPIPNS_9StatementENS_6CssizeEEclEPNS_10Color_RGBAE W
_ZN4Sass14Operation_CRTPIPNS_9StatementENS_6CssizeEEclEPNS_10DefinitionE W
_ZN4Sass14Operation_CRTPIPNS_9StatementENS_6CssizeEEclEPNS_10ExtendRuleE W
_ZN4Sass14Operation_CRTPIPNS_9StatementENS_6CssizeEEclEPNS_10IDSelectorE W
_ZN4Sass14Operation_CRTPIPNS_9StatementENS_6CssizeEEclEPNS_10Mixin_CallE W
_ZN4Sass14Operation_CRTPIPNS_9StatementENS_6CssizeEEclEPNS_10ParametersE W
_ZN4Sass14Operation_CRTPIPNS_9StatementENS_6CssizeEEclEPNS_11Import_StubE W
_ZN4Sass14Operation_CRTPIPNS_9StatementENS_6CssizeEEclEPNS_11Media_QueryE W
_ZN4Sass14Operation_CRTPIPNS_9StatementENS_6CssizeEEclEPNS_11WarningRuleE W
_ZN4Sass14Operation_CRTPIPNS_9StatementENS_6CssizeEEclEPNS_12Custom_ErrorE W
_ZN4Sass14Operation_CRTPIPNS_9StatementENS_6CssizeEEclEPNS_12SelectorListE W
_ZN4Sass14Operation_CRTPIPNS_9StatementENS_6CssizeEEclEPNS_12TypeSelectorE W
_ZN4Sass14Operation_CRTPIPNS_9StatementENS_6CssizeEEclEPNS_13At_Root_QueryE W
_ZN4Sass14Operation_CRTPIPNS_9StatementENS_6CssizeEEclEPNS_13ClassSelectorE W
_ZN4Sass14Operation_CRTPIPNS_9StatementENS_6CssizeEEclEPNS_13CssMediaQueryE W
_ZN4Sass14Operation_CRTPIPNS_9StatementENS_6CssizeEEclEPNS_13Function_CallE W
_ZN4Sass14Operation_CRTPIPNS_9StatementENS_6CssizeEEclEPNS_13String_QuotedE W
_ZN4Sass14Operation_CRTPIPNS_9StatementENS_6CssizeEEclEPNS_13String_SchemaE W
_ZN4Sass14Operation_CRTPIPNS_9StatementENS_6CssizeEEclEPNS_14Custom_WarningE W
_ZN4Sass14Operation_CRTPIPNS_9StatementENS_6CssizeEEclEPNS_14PseudoSelectorE W
_ZN4Sass14Operation_CRTPIPNS_9StatementENS_6CssizeEEclEPNS_15ComplexSelectorE W
_ZN4Sass14Operation_CRTPIPNS_9StatementENS_6CssizeEEclEPNS_15Selector_SchemaE W
_ZN4Sass14Operation_CRTPIPNS_9StatementENS_6CssizeEEclEPNS_15String_ConstantE W
_ZN4Sass14Operation_CRTPIPNS_9StatementENS_6CssizeEEclEPNS_16CompoundSelectorE W
_ZN4Sass14Operation_CRTPIPNS_9StatementENS_6CssizeEEclEPNS_16Parent_ReferenceE W
_ZN4Sass14Operation_CRTPIPNS_9StatementENS_6CssizeEEclEPNS_16SupportsNegationE W
_ZN4Sass14Operation_CRTPIPNS_9StatementENS_6CssizeEEclEPNS_16Unary_ExpressionE W
_ZN4Sass14Operation_CRTPIPNS_9StatementENS_6CssizeEEclEPNS_17AttributeSelectorE W
_ZN4Sass14Operation_CRTPIPNS_9StatementENS_6CssizeEEclEPNS_17Binary_ExpressionE W
_ZN4Sass14Operation_CRTPIPNS_9StatementENS_6CssizeEEclEPNS_17SelectorComponentE W
_ZN4Sass14Operation_CRTPIPNS_9StatementENS_6CssizeEEclEPNS_17SupportsConditionE W
_ZN4Sass14Operation_CRTPIPNS_9StatementENS_6CssizeEEclEPNS_17SupportsOperationE W
_ZN4Sass14Operation_CRTPIPNS_9StatementENS_6CssizeEEclEPNS_18SelectorCombinatorE W
_ZN4Sass14Operation_CRTPIPNS_9StatementENS_6CssizeEEclEPNS_19PlaceholderSelectorE W
_ZN4Sass14Operation_CRTPIPNS_9StatementENS_6CssizeEEclEPNS_19SupportsDeclarationE W
_ZN4Sass14Operation_CRTPIPNS_9StatementENS_6CssizeEEclEPNS_22Media_Query_ExpressionE W
_ZN4Sass14Operation_CRTPIPNS_9StatementENS_6CssizeEEclEPNS_22Supports_InterpolationE W
_ZN4Sass14Operation_CRTPIPNS_9StatementENS_6CssizeEEclEPNS_2IfE W
_ZN4Sass14Operation_CRTPIPNS_9StatementENS_6CssizeEEclEPNS_3MapE W
_ZN4Sass14Operation_CRTPIPNS_9StatementENS_6CssizeEEclEPNS_4ListE W
_ZN4Sass14Operation_CRTPIPNS_9StatementENS_6CssizeEEclEPNS_5ColorE W
_ZN4Sass14Operation_CRTPIPNS_9StatementENS_6CssizeEEclEPNS_6BubbleE W
_ZN4Sass14Operation_CRTPIPNS_9StatementENS_6CssizeEEclEPNS_6ImportE W
_ZN4Sass14Operation_CRTPIPNS_9StatementENS_6CssizeEEclEPNS_6NumberE W
_ZN4Sass14Operation_CRTPIPNS_9StatementENS_6CssizeEEclEPNS_6ReturnE W
_ZN4Sass14Operation_CRTPIPNS_9StatementENS_6CssizeEEclEPNS_7BooleanE W
_ZN4Sass14Operation_CRTPIPNS_9StatementENS_6CssizeEEclEPNS_7CommentE W
_ZN4Sass14Operation_CRTPIPNS_9StatementENS_6CssizeEEclEPNS_7ContentE W
_ZN4Sass14Operation_CRTPIPNS_9StatementENS_6CssizeEEclEPNS_7ForRuleE W
_ZN4Sass14Operation_CRTPIPNS_9StatementENS_6CssizeEEclEPNS_8ArgumentE W
_ZN4Sass14Operation_CRTPIPNS_9StatementENS_6CssizeEEclEPNS_8AST_NodeE W
_ZN4Sass14Operation_CRTPIPNS_9StatementENS_6CssizeEEclEPNS_8EachRuleE W
_ZN4Sass14Operation_CRTPIPNS_9StatementENS_6CssizeEEclEPNS_8FunctionE W
_ZN4Sass14Operation_CRTPIPNS_9StatementENS_6CssizeEEclEPNS_8VariableE W
_ZN4Sass14Operation_CRTPIPNS_9StatementENS_6CssizeEEclEPNS_9ArgumentsE W
_ZN4Sass14Operation_CRTPIPNS_9StatementENS_6CssizeEEclEPNS_9DebugRuleE W
_ZN4Sass14Operation_CRTPIPNS_9StatementENS_6CssizeEEclEPNS_9ErrorRuleE W
_ZN4Sass14Operation_CRTPIPNS_9StatementENS_6CssizeEEclEPNS_9MediaRuleE W
_ZN4Sass14Operation_CRTPIPNS_9StatementENS_6CssizeEEclEPNS_9ParameterE W
_ZN4Sass14Operation_CRTPIPNS_9StatementENS_6CssizeEEclEPNS_9WhileRuleE W
_ZN4Sass14Operation_CRTPIPNS_9StatementENS_6ExpandEE8fallbackIPNS_10Color_HSLAEEES2_T_ W
_ZN4Sass14Operation_CRTPIPNS_9StatementENS_6ExpandEE8fallbackIPNS_10Color_RGBAEEES2_T_ W
_ZN4Sass14Operation_CRTPIPNS_9StatementENS_6ExpandEE8fallbackIPNS_10IDSelectorEEES2_T_ W
_ZN4Sass14Operation_CRTPIPNS_9StatementENS_6ExpandEE8fallbackIPNS_10ParametersEEES2_T_ W
_ZN4Sass14Operation_CRTPIPNS_9StatementENS_6ExpandEE8fallbackIPNS_11Media_QueryEEES2_T_ W
_ZN4Sass14Operation_CRTPIPNS_9StatementENS_6ExpandEE8fallbackIPNS_12CssMediaRuleEEES2_T_ W
_ZN4Sass14Operation_CRTPIPNS_9StatementENS_6ExpandEE8fallbackIPNS_12Custom_ErrorEEES2_T_ W
_ZN4Sass14Operation_CRTPIPNS_9StatementENS_6ExpandEE8fallbackIPNS_12SelectorListEEES2_T_ W
_ZN4Sass14Operation_CRTPIPNS_9StatementENS_6ExpandEE8fallbackIPNS_12TypeSelectorEEES2_T_ W
_ZN4Sass14Operation_CRTPIPNS_9StatementENS_6ExpandEE8fallbackIPNS_13At_Root_QueryEEES2_T_ W
_ZN4Sass14Operation_CRTPIPNS_9StatementENS_6ExpandEE8fallbackIPNS_13ClassSelectorEEES2_T_ W
_ZN4Sass14Operation_CRTPIPNS_9StatementENS_6ExpandEE8fallbackIPNS_13CssMediaQueryEEES2_T_ W
_ZN4Sass14Operation_CRTPIPNS_9StatementENS_6ExpandEE8fallbackIPNS_13Function_CallEEES2_T_ W
_ZN4Sass14Operation_CRTPIPNS_9StatementENS_6ExpandEE8fallbackIPNS_13Keyframe_RuleEEES2_T_ W
_ZN4Sass14Operation_CRTPIPNS_9StatementENS_6ExpandEE8fallbackIPNS_13String_QuotedEEES2_T_ W
_ZN4Sass14Operation_CRTPIPNS_9StatementENS_6ExpandEE8fallbackIPNS_13String_SchemaEEES2_T_ W
_ZN4Sass14Operation_CRTPIPNS_9StatementENS_6ExpandEE8fallbackIPNS_14Custom_WarningEEES2_T_ W
_ZN4Sass14Operation_CRTPIPNS_9StatementENS_6ExpandEE8fallbackIPNS_14PseudoSelectorEEES2_T_ W
_ZN4Sass14Operation_CRTPIPNS_9StatementENS_6ExpandEE8fallbackIPNS_15ComplexSelectorEEES2_T_ W
_ZN4Sass14Operation_CRTPIPNS_9StatementENS_6ExpandEE8fallbackIPNS_15Selector_SchemaEEES2_T_ W
_ZN4Sass14Operation_CRTPIPNS_9StatementENS_6ExpandEE8fallbackIPNS_15String_ConstantEEES2_T_ W
_ZN4Sass14Operation_CRTPIPNS_9StatementENS_6ExpandEE8fallbackIPNS_16CompoundSelectorEEES2_T_ W
_ZN4Sass14Operation_CRTPIPNS_9StatementENS_6ExpandEE8fallbackIPNS_16Parent_ReferenceEEES2_T_ W
_ZN4Sass14Operation_CRTPIPNS_9StatementENS_6ExpandEE8fallbackIPNS_16SupportsNegationEEES2_T_ W
_ZN4Sass14Operation_CRTPIPNS_9StatementENS_6ExpandEE8fallbackIPNS_16Unary_ExpressionEEES2_T_ W
_ZN4Sass14Operation_CRTPIPNS_9StatementENS_6ExpandEE8fallbackIPNS_17AttributeSelectorEEES2_T_ W
_ZN4Sass14Operation_CRTPIPNS_9StatementENS_6ExpandEE8fallbackIPNS_17Binary_ExpressionEEES2_T_ W
_ZN4Sass14Operation_CRTPIPNS_9StatementENS_6ExpandEE8fallbackIPNS_17SelectorComponentEEES2_T_ W
_ZN4Sass14Operation_CRTPIPNS_9StatementENS_6ExpandEE8fallbackIPNS_17SupportsConditionEEES2_T_ W
_ZN4Sass14Operation_CRTPIPNS_9StatementENS_6ExpandEE8fallbackIPNS_17SupportsOperationEEES2_T_ W
_ZN4Sass14Operation_CRTPIPNS_9StatementENS_6ExpandEE8fallbackIPNS_18SelectorCombinatorEEES2_T_ W
_ZN4Sass14Operation_CRTPIPNS_9StatementENS_6ExpandEE8fallbackIPNS_19PlaceholderSelectorEEES2_T_ W
_ZN4Sass14Operation_CRTPIPNS_9StatementENS_6ExpandEE8fallbackIPNS_19SupportsDeclarationEEES2_T_ W
_ZN4Sass14Operation_CRTPIPNS_9StatementENS_6ExpandEE8fallbackIPNS_22Media_Query_ExpressionEEES2_T_ W
_ZN4Sass14Operation_CRTPIPNS_9StatementENS_6ExpandEE8fallbackIPNS_22Supports_InterpolationEEES2_T_ W
_ZN4Sass14Operation_CRTPIPNS_9StatementENS_6ExpandEE8fallbackIPNS_3MapEEES2_T_ W
_ZN4Sass14Operation_CRTPIPNS_9StatementENS_6ExpandEE8fallbackIPNS_4ListEEES2_T_ W
_ZN4Sass14Operation_CRTPIPNS_9StatementENS_6ExpandEE8fallbackIPNS_4NullEEES2_T_ W
_ZN4Sass14Operation_CRTPIPNS_9StatementENS_6ExpandEE8fallbackIPNS_5ColorEEES2_T_ W
_ZN4Sass14Operation_CRTPIPNS_9StatementENS_6ExpandEE8fallbackIPNS_5TraceEEES2_T_ W
_ZN4Sass14Operation_CRTPIPNS_9StatementENS_6ExpandEE8fallbackIPNS_6BubbleEEES2_T_ W
_ZN4Sass14Operation_CRTPIPNS_9StatementENS_6ExpandEE8fallbackIPNS_6NumberEEES2_T_ W
_ZN4Sass14Operation_CRTPIPNS_9StatementENS_6ExpandEE8fallbackIPNS_7BooleanEEES2_T_ W
_ZN4Sass14Operation_CRTPIPNS_9StatementENS_6ExpandEE8fallbackIPNS_8ArgumentEEES2_T_ W
_ZN4Sass14Operation_CRTPIPNS_9StatementENS_6ExpandEE8fallbackIPNS_8AST_NodeEEES2_T_ W
_ZN4Sass14Operation_CRTPIPNS_9StatementENS_6ExpandEE8fallbackIPNS_8FunctionEEES2_T_ W
_ZN4Sass14Operation_CRTPIPNS_9StatementENS_6ExpandEE8fallbackIPNS_8VariableEEES2_T_ W
_ZN4Sass14Operation_CRTPIPNS_9StatementENS_6ExpandEE8fallbackIPNS_9ArgumentsEEES2_T_ W
_ZN4Sass14Operation_CRTPIPNS_9StatementENS_6ExpandEE8fallbackIPNS_9ParameterEEES2_T_ W
_ZN4Sass14Operation_CRTPIPNS_9StatementENS_6ExpandEEclEPNS_10Color_HSLAE W
_ZN4Sass14Operation_CRTPIPNS_9StatementENS_6ExpandEEclEPNS_10Color_RGBAE W
_ZN4Sass14Operation_CRTPIPNS_9StatementENS_6ExpandEEclEPNS_10IDSelectorE W
_ZN4Sass14Operation_CRTPIPNS_9StatementENS_6ExpandEEclEPNS_10ParametersE W
_ZN4Sass14Operation_CRTPIPNS_9StatementENS_6ExpandEEclEPNS_11Media_QueryE W
_ZN4Sass14Operation_CRTPIPNS_9StatementENS_6ExpandEEclEPNS_12CssMediaRuleE W
_ZN4Sass14Operation_CRTPIPNS_9StatementENS_6ExpandEEclEPNS_12Custom_ErrorE W
_ZN4Sass14Operation_CRTPIPNS_9StatementENS_6ExpandEEclEPNS_12SelectorListE W
_ZN4Sass14Operation_CRTPIPNS_9StatementENS_6ExpandEEclEPNS_12TypeSelectorE W
_ZN4Sass14Operation_CRTPIPNS_9StatementENS_6ExpandEEclEPNS_13At_Root_QueryE W
_ZN4Sass14Operation_CRTPIPNS_9StatementENS_6ExpandEEclEPNS_13ClassSelectorE W
_ZN4Sass14Operation_CRTPIPNS_9StatementENS_6ExpandEEclEPNS_13CssMediaQueryE W
_ZN4Sass14Operation_CRTPIPNS_9StatementENS_6ExpandEEclEPNS_13Function_CallE W
_ZN4Sass14Operation_CRTPIPNS_9StatementENS_6ExpandEEclEPNS_13Keyframe_RuleE W
_ZN4Sass14Operation_CRTPIPNS_9StatementENS_6ExpandEEclEPNS_13String_QuotedE W
_ZN4Sass14Operation_CRTPIPNS_9StatementENS_6ExpandEEclEPNS_13String_SchemaE W
_ZN4Sass14Operation_CRTPIPNS_9StatementENS_6ExpandEEclEPNS_14Custom_WarningE W
_ZN4Sass14Operation_CRTPIPNS_9StatementENS_6ExpandEEclEPNS_14PseudoSelectorE W
_ZN4Sass14Operation_CRTPIPNS_9StatementENS_6ExpandEEclEPNS_15ComplexSelectorE W
_ZN4Sass14Operation_CRTPIPNS_9StatementENS_6ExpandEEclEPNS_15Selector_SchemaE W
_ZN4Sass14Operation_CRTPIPNS_9StatementENS_6ExpandEEclEPNS_15String_ConstantE W
_ZN4Sass14Operation_CRTPIPNS_9StatementENS_6ExpandEEclEPNS_16CompoundSelectorE W
_ZN4Sass14Operation_CRTPIPNS_9StatementENS_6ExpandEEclEPNS_16Parent_ReferenceE W
_ZN4Sass14Operation_CRTPIPNS_9StatementENS_6ExpandEEclEPNS_16SupportsNegationE W
_ZN4Sass14Operation_CRTPIPNS_9StatementENS_6ExpandEEclEPNS_16Unary_ExpressionE W
_ZN4Sass14Operation_CRTPIPNS_9StatementENS_6ExpandEEclEPNS_17AttributeSelectorE W
_ZN4Sass14Operation_CRTPIPNS_9StatementENS_6ExpandEEclEPNS_17Binary_ExpressionE W
_ZN4Sass14Operation_CRTPIPNS_9StatementENS_6ExpandEEclEPNS_17SelectorComponentE W
_ZN4Sass14Operation_CRTPIPNS_9StatementENS_6ExpandEEclEPNS_17SupportsConditionE W
_ZN4Sass14Operation_CRTPIPNS_9StatementENS_6ExpandEEclEPNS_17SupportsOperationE W
_ZN4Sass14Operation_CRTPIPNS_9StatementENS_6ExpandEEclEPNS_18SelectorCombinatorE W
_ZN4Sass14Operation_CRTPIPNS_9StatementENS_6ExpandEEclEPNS_19PlaceholderSelectorE W
_ZN4Sass14Operation_CRTPIPNS_9StatementENS_6ExpandEEclEPNS_19SupportsDeclarationE W
_ZN4Sass14Operation_CRTPIPNS_9StatementENS_6ExpandEEclEPNS_22Media_Query_ExpressionE W
_ZN4Sass14Operation_CRTPIPNS_9StatementENS_6ExpandEEclEPNS_22Supports_InterpolationE W
_ZN4Sass14Operation_CRTPIPNS_9StatementENS_6ExpandEEclEPNS_3MapE W
_ZN4Sass14Operation_CRTPIPNS_9StatementENS_6ExpandEEclEPNS_4ListE W
_ZN4Sass14Operation_CRTPIPNS_9StatementENS_6ExpandEEclEPNS_4NullE W
_ZN4Sass14Operation_CRTPIPNS_9StatementENS_6ExpandEEclEPNS_5ColorE W
_ZN4Sass14Operation_CRTPIPNS_9StatementENS_6ExpandEEclEPNS_5TraceE W
_ZN4Sass14Operation_CRTPIPNS_9StatementENS_6ExpandEEclEPNS_6BubbleE W
_ZN4Sass14Operation_CRTPIPNS_9StatementENS_6ExpandEEclEPNS_6NumberE W
_ZN4Sass14Operation_CRTPIPNS_9StatementENS_6ExpandEEclEPNS_7BooleanE W
_ZN4Sass14Operation_CRTPIPNS_9StatementENS_6ExpandEEclEPNS_8ArgumentE W
_ZN4Sass14Operation_CRTPIPNS_9StatementENS_6ExpandEEclEPNS_8AST_NodeE W
_ZN4Sass14Operation_CRTPIPNS_9StatementENS_6ExpandEEclEPNS_8FunctionE W
_ZN4Sass14Operation_CRTPIPNS_9StatementENS_6ExpandEEclEPNS_8VariableE W
_ZN4Sass14Operation_CRTPIPNS_9StatementENS_6ExpandEEclEPNS_9ArgumentsE W
_ZN4Sass14Operation_CRTPIPNS_9StatementENS_6ExpandEEclEPNS_9ParameterE W
_ZN4Sass14Operation_CRTPIvNS_19Remove_PlaceholdersEEclEPNS_10AssignmentE W
_ZN4Sass14Operation_CRTPIvNS_19Remove_PlaceholdersEEclEPNS_10AtRootRuleE W
_ZN4Sass14Operation_CRTPIvNS_19Remove_PlaceholdersEEclEPNS_10Color_HSLAE W
_ZN4Sass14Operation_CRTPIvNS_19Remove_PlaceholdersEEclEPNS_10Color_RGBAE W
_ZN4Sass14Operation_CRTPIvNS_19Remove_PlaceholdersEEclEPNS_10DefinitionE W
_ZN4Sass14Operation_CRTPIvNS_19Remove_PlaceholdersEEclEPNS_10ExtendRuleE W
_ZN4Sass14Operation_CRTPIvNS_19Remove_PlaceholdersEEclEPNS_10IDSelectorE W
_ZN4Sass14Operation_CRTPIvNS_19Remove_PlaceholdersEEclEPNS_10Mixin_CallE W
_ZN4Sass14Operation_CRTPIvNS_19Remove_PlaceholdersEEclEPNS_10ParametersE W
_ZN4Sass14Operation_CRTPIvNS_19Remove_PlaceholdersEEclEPNS_11DeclarationE W
_ZN4Sass14Operation_CRTPIvNS_19Remove_PlaceholdersEEclEPNS_11Import_StubE W
_ZN4Sass14Operation_CRTPIvNS_19Remove_PlaceholdersEEclEPNS_11Media_QueryE W
_ZN4Sass14Operation_CRTPIvNS_19Remove_PlaceholdersEEclEPNS_11WarningRuleE W
_ZN4Sass14Operation_CRTPIvNS_19Remove_PlaceholdersEEclEPNS_12Custom_ErrorE W
_ZN4Sass14Operation_CRTPIvNS_19Remove_PlaceholdersEEclEPNS_12SelectorListE W
_ZN4Sass14Operation_CRTPIvNS_19Remove_PlaceholdersEEclEPNS_12TypeSelectorE W
_ZN4Sass14Operation_CRTPIvNS_19Remove_PlaceholdersEEclEPNS_13At_Root_QueryE W
_ZN4Sass14Operation_CRTPIvNS_19Remove_PlaceholdersEEclEPNS_13ClassSelectorE W
_ZN4Sass14Operation_CRTPIvNS_19Remove_PlaceholdersEEclEPNS_13CssMediaQueryE W
_ZN4Sass14Operation_CRTPIvNS_19Remove_PlaceholdersEEclEPNS_13Function_CallE W
_ZN4Sass14Operation_CRTPIvNS_19Remove_PlaceholdersEEclEPNS_13Keyframe_RuleE W
_ZN4Sass14Operation_CRTPIvNS_19Remove_PlaceholdersEEclEPNS_13String_QuotedE W
_ZN4Sass14Operation_CRTPIvNS_19Remove_PlaceholdersEEclEPNS_13String_SchemaE W
_ZN4Sass14Operation_CRTPIvNS_19Remove_PlaceholdersEEclEPNS_14Custom_WarningE W
_ZN4Sass14Operation_CRTPIvNS_19Remove_PlaceholdersEEclEPNS_14PseudoSelectorE W
_ZN4Sass14Operation_CRTPIvNS_19Remove_PlaceholdersEEclEPNS_15ComplexSelectorE W
_ZN4Sass14Operation_CRTPIvNS_19Remove_PlaceholdersEEclEPNS_15Selector_SchemaE W
_ZN4Sass14Operation_CRTPIvNS_19Remove_PlaceholdersEEclEPNS_15String_ConstantE W
_ZN4Sass14Operation_CRTPIvNS_19Remove_PlaceholdersEEclEPNS_16CompoundSelectorE W
_ZN4Sass14Operation_CRTPIvNS_19Remove_PlaceholdersEEclEPNS_16Parent_ReferenceE W
_ZN4Sass14Operation_CRTPIvNS_19Remove_PlaceholdersEEclEPNS_16SupportsNegationE W
_ZN4Sass14Operation_CRTPIvNS_19Remove_PlaceholdersEEclEPNS_16Unary_ExpressionE W
_ZN4Sass14Operation_CRTPIvNS_19Remove_PlaceholdersEEclEPNS_17AttributeSelectorE W
_ZN4Sass14Operation_CRTPIvNS_19Remove_PlaceholdersEEclEPNS_17Binary_ExpressionE W
_ZN4Sass14Operation_CRTPIvNS_19Remove_PlaceholdersEEclEPNS_17SelectorComponentE W
_ZN4Sass14Operation_CRTPIvNS_19Remove_PlaceholdersEEclEPNS_17SupportsConditionE W
_ZN4Sass14Operation_CRTPIvNS_19Remove_PlaceholdersEEclEPNS_17SupportsOperationE W
_ZN4Sass14Operation_CRTPIvNS_19Remove_PlaceholdersEEclEPNS_18SelectorCombinatorE W
_ZN4Sass14Operation_CRTPIvNS_19Remove_PlaceholdersEEclEPNS_19PlaceholderSelectorE W
_ZN4Sass14Operation_CRTPIvNS_19Remove_PlaceholdersEEclEPNS_19SupportsDeclarationE W
_ZN4Sass14Operation_CRTPIvNS_19Remove_PlaceholdersEEclEPNS_22Media_Query_ExpressionE W
_ZN4Sass14Operation_CRTPIvNS_19Remove_PlaceholdersEEclEPNS_22Supports_InterpolationE W
_ZN4Sass14Operation_CRTPIvNS_19Remove_PlaceholdersEEclEPNS_2IfE W
_ZN4Sass14Operation_CRTPIvNS_19Remove_PlaceholdersEEclEPNS_3MapE W
_ZN4Sass14Operation_CRTPIvNS_19Remove_PlaceholdersEEclEPNS_4ListE W
_ZN4Sass14Operation_CRTPIvNS_19Remove_PlaceholdersEEclEPNS_4NullE W
_ZN4Sass14Operation_CRTPIvNS_19Remove_PlaceholdersEEclEPNS_5ColorE W
_ZN4Sass14Operation_CRTPIvNS_19Remove_PlaceholdersEEclEPNS_5TraceE W
_ZN4Sass14Operation_CRTPIvNS_19Remove_PlaceholdersEEclEPNS_6BubbleE W
_ZN4Sass14Operation_CRTPIvNS_19Remove_PlaceholdersEEclEPNS_6ImportE W
_ZN4Sass14Operation_CRTPIvNS_19Remove_PlaceholdersEEclEPNS_6NumberE W
_ZN4Sass14Operation_CRTPIvNS_19Remove_PlaceholdersEEclEPNS_6ReturnE W
_ZN4Sass14Operation_CRTPIvNS_19Remove_PlaceholdersEEclEPNS_7BooleanE W
_ZN4Sass14Operation_CRTPIvNS_19Remove_PlaceholdersEEclEPNS_7CommentE W
_ZN4Sass14Operation_CRTPIvNS_19Remove_PlaceholdersEEclEPNS_7ContentE W
_ZN4Sass14Operation_CRTPIvNS_19Remove_PlaceholdersEEclEPNS_7ForRuleE W
_ZN4Sass14Operation_CRTPIvNS_19Remove_PlaceholdersEEclEPNS_8ArgumentE W
_ZN4Sass14Operation_CRTPIvNS_19Remove_PlaceholdersEEclEPNS_8AST_NodeE W
_ZN4Sass14Operation_CRTPIvNS_19Remove_PlaceholdersEEclEPNS_8EachRuleE W
_ZN4Sass14Operation_CRTPIvNS_19Remove_PlaceholdersEEclEPNS_8FunctionE W
_ZN4Sass14Operation_CRTPIvNS_19Remove_PlaceholdersEEclEPNS_8VariableE W
_ZN4Sass14Operation_CRTPIvNS_19Remove_PlaceholdersEEclEPNS_9ArgumentsE W
_ZN4Sass14Operation_CRTPIvNS_19Remove_PlaceholdersEEclEPNS_9DebugRuleE W
_ZN4Sass14Operation_CRTPIvNS_19Remove_PlaceholdersEEclEPNS_9ErrorRuleE W
_ZN4Sass14Operation_CRTPIvNS_19Remove_PlaceholdersEEclEPNS_9MediaRuleE W
_ZN4Sass14Operation_CRTPIvNS_19Remove_PlaceholdersEEclEPNS_9ParameterE W
_ZN4Sass14Operation_CRTPIvNS_19Remove_PlaceholdersEEclEPNS_9WhileRuleE W
_ZN4Sass14Operation_CRTPIvNS_7InspectEE8fallbackIPNS_10AssignmentEEEvT_ W
_ZN4Sass14Operation_CRTPIvNS_7InspectEE8fallbackIPNS_10AtRootRuleEEEvT_ W
_ZN4Sass14Operation_CRTPIvNS_7InspectEE8fallbackIPNS_10Color_HSLAEEEvT_ W
_ZN4Sass14Operation_CRTPIvNS_7InspectEE8fallbackIPNS_10Color_RGBAEEEvT_ W
_ZN4Sass14Operation_CRTPIvNS_7InspectEE8fallbackIPNS_10DefinitionEEEvT_ W
_ZN4Sass14Operation_CRTPIvNS_7InspectEE8fallbackIPNS_10ExtendRuleEEEvT_ W
_ZN4Sass14Operation_CRTPIvNS_7InspectEE8fallbackIPNS_10IDSelectorEEEvT_ W
_ZN4Sass14Operation_CRTPIvNS_7InspectEE8fallbackIPNS_10Mixin_CallEEEvT_ W
_ZN4Sass14Operation_CRTPIvNS_7InspectEE8fallbackIPNS_10ParametersEEEvT_ W
_ZN4Sass14Operation_CRTPIvNS_7InspectEE8fallbackIPNS_11DeclarationEEEvT_ W
_ZN4Sass14Operation_CRTPIvNS_7InspectEE8fallbackIPNS_11Import_StubEEEvT_ W
_ZN4Sass14Operation_CRTPIvNS_7InspectEE8fallbackIPNS_11Media_QueryEEEvT_ W
_ZN4Sass14Operation_CRTPIvNS_7InspectEE8fallbackIPNS_11WarningRuleEEEvT_ W
_ZN4Sass14Operation_CRTPIvNS_7InspectEE8fallbackIPNS_12CssMediaRuleEEEvT_ W
_ZN4Sass14Operation_CRTPIvNS_7InspectEE8fallbackIPNS_12Custom_ErrorEEEvT_ W
_ZN4Sass14Operation_CRTPIvNS_7InspectEE8fallbackIPNS_12SelectorListEEEvT_ W
_ZN4Sass14Operation_CRTPIvNS_7InspectEE8fallbackIPNS_12SupportsRuleEEEvT_ W
_ZN4Sass14Operation_CRTPIvNS_7InspectEE8fallbackIPNS_12TypeSelectorEEEvT_ W
_ZN4Sass14Operation_CRTPIvNS_7InspectEE8fallbackIPNS_13At_Root_QueryEEEvT_ W
_ZN4Sass14Operation_CRTPIvNS_7InspectEE8fallbackIPNS_13ClassSelectorEEEvT_ W
_ZN4Sass14Operation_CRTPIvNS_7InspectEE8fallbackIPNS_13CssMediaQueryEEEvT_ W
_ZN4Sass14Operation_CRTPIvNS_7InspectEE8fallbackIPNS_13Function_CallEEEvT_ W
_ZN4Sass14Operation_CRTPIvNS_7InspectEE8fallbackIPNS_13Keyframe_RuleEEEvT_ W
_ZN4Sass14Operation_CRTPIvNS_7InspectEE8fallbackIPNS_13String_QuotedEEEvT_ W
_ZN4Sass14Operation_CRTPIvNS_7InspectEE8fallbackIPNS_13String_SchemaEEEvT_ W
_ZN4Sass14Operation_CRTPIvNS_7InspectEE8fallbackIPNS_14Custom_WarningEEEvT_ W
_ZN4Sass14Operation_CRTPIvNS_7InspectEE8fallbackIPNS_14PseudoSelectorEEEvT_ W
_ZN4Sass14Operation_CRTPIvNS_7InspectEE8fallbackIPNS_15ComplexSelectorEEEvT_ W
_ZN4Sass14Operation_CRTPIvNS_7InspectEE8fallbackIPNS_15Selector_SchemaEEEvT_ W
_ZN4Sass14Operation_CRTPIvNS_7InspectEE8fallbackIPNS_15String_ConstantEEEvT_ W
_ZN4Sass14Operation_CRTPIvNS_7InspectEE8fallbackIPNS_16CompoundSelectorEEEvT_ W
_ZN4Sass14Operation_CRTPIvNS_7InspectEE8fallbackIPNS_16Parent_ReferenceEEEvT_ W
_ZN4Sass14Operation_CRTPIvNS_7InspectEE8fallbackIPNS_16SupportsNegationEEEvT_ W
_ZN4Sass14Operation_CRTPIvNS_7InspectEE8fallbackIPNS_16Unary_ExpressionEEEvT_ W
_ZN4Sass14Operation_CRTPIvNS_7InspectEE8fallbackIPNS_17AttributeSelectorEEEvT_ W
_ZN4Sass14Operation_CRTPIvNS_7InspectEE8fallbackIPNS_17Binary_ExpressionEEEvT_ W
_ZN4Sass14Operation_CRTPIvNS_7InspectEE8fallbackIPNS_17SelectorComponentEEEvT_ W
_ZN4Sass14Operation_CRTPIvNS_7InspectEE8fallbackIPNS_17SupportsConditionEEEvT_ W
_ZN4Sass14Operation_CRTPIvNS_7InspectEE8fallbackIPNS_17SupportsOperationEEEvT_ W
_ZN4Sass14Operation_CRTPIvNS_7InspectEE8fallbackIPNS_18SelectorCombinatorEEEvT_ W
_ZN4Sass14Operation_CRTPIvNS_7InspectEE8fallbackIPNS_19PlaceholderSelectorEEEvT_ W
_ZN4Sass14Operation_CRTPIvNS_7InspectEE8fallbackIPNS_19SupportsDeclarationEEEvT_ W
_ZN4Sass14Operation_CRTPIvNS_7InspectEE8fallbackIPNS_22Media_Query_ExpressionEEEvT_ W
_ZN4Sass14Operation_CRTPIvNS_7InspectEE8fallbackIPNS_22Supports_InterpolationEEEvT_ W
_ZN4Sass14Operation_CRTPIvNS_7InspectEE8fallbackIPNS_2IfEEEvT_ W
_ZN4Sass14Operation_CRTPIvNS_7InspectEE8fallbackIPNS_3MapEEEvT_ W
_ZN4Sass14Operation_CRTPIvNS_7InspectEE8fallbackIPNS_4ListEEEvT_ W
_ZN4Sass14Operation_CRTPIvNS_7InspectEE8fallbackIPNS_4NullEEEvT_ W
_ZN4Sass14Operation_CRTPIvNS_7InspectEE8fallbackIPNS_5BlockEEEvT_ W
_ZN4Sass14Operation_CRTPIvNS_7InspectEE8fallbackIPNS_5ColorEEEvT_ W
_ZN4Sass14Operation_CRTPIvNS_7InspectEE8fallbackIPNS_5TraceEEEvT_ W
_ZN4Sass14Operation_CRTPIvNS_7InspectEE8fallbackIPNS_6AtRuleEEEvT_ W
_ZN4Sass14Operation_CRTPIvNS_7InspectEE8fallbackIPNS_6BubbleEEEvT_ W
_ZN4Sass14Operation_CRTPIvNS_7InspectEE8fallbackIPNS_6ImportEEEvT_ W
_ZN4Sass14Operation_CRTPIvNS_7InspectEE8fallbackIPNS_6NumberEEEvT_ W
_ZN4Sass14Operation_CRTPIvNS_7InspectEE8fallbackIPNS_6ReturnEEEvT_ W
_ZN4Sass14Operation_CRTPIvNS_7InspectEE8fallbackIPNS_7BooleanEEEvT_ W
_ZN4Sass14Operation_CRTPIvNS_7InspectEE8fallbackIPNS_7CommentEEEvT_ W
_ZN4Sass14Operation_CRTPIvNS_7InspectEE8fallbackIPNS_7ContentEEEvT_ W
_ZN4Sass14Operation_CRTPIvNS_7InspectEE8fallbackIPNS_7ForRuleEEEvT_ W
_ZN4Sass14Operation_CRTPIvNS_7InspectEE8fallbackIPNS_8ArgumentEEEvT_ W
_ZN4Sass14Operation_CRTPIvNS_7InspectEE8fallbackIPNS_8AST_NodeEEEvT_ W
_ZN4Sass14Operation_CRTPIvNS_7InspectEE8fallbackIPNS_8EachRuleEEEvT_ W
_ZN4Sass14Operation_CRTPIvNS_7InspectEE8fallbackIPNS_8FunctionEEEvT_ W
_ZN4Sass14Operation_CRTPIvNS_7InspectEE8fallbackIPNS_8VariableEEEvT_ W
_ZN4Sass14Operation_CRTPIvNS_7InspectEE8fallbackIPNS_9ArgumentsEEEvT_ W
_ZN4Sass14Operation_CRTPIvNS_7InspectEE8fallbackIPNS_9DebugRuleEEEvT_ W
_ZN4Sass14Operation_CRTPIvNS_7InspectEE8fallbackIPNS_9ErrorRuleEEEvT_ W
_ZN4Sass14Operation_CRTPIvNS_7InspectEE8fallbackIPNS_9MediaRuleEEEvT_ W
_ZN4Sass14Operation_CRTPIvNS_7InspectEE8fallbackIPNS_9ParameterEEEvT_ W
_ZN4Sass14Operation_CRTPIvNS_7InspectEE8fallbackIPNS_9StyleRuleEEEvT_ W
_ZN4Sass14Operation_CRTPIvNS_7InspectEE8fallbackIPNS_9WhileRuleEEEvT_ W
_ZN4Sass14Operation_CRTPIvNS_7InspectEEclEPNS_10AssignmentE W
_ZN4Sass14Operation_CRTPIvNS_7InspectEEclEPNS_10AtRootRuleE W
_ZN4Sass14Operation_CRTPIvNS_7InspectEEclEPNS_10Color_HSLAE W
_ZN4Sass14Operation_CRTPIvNS_7InspectEEclEPNS_10Color_RGBAE W
_ZN4Sass14Operation_CRTPIvNS_7InspectEEclEPNS_10DefinitionE W
_ZN4Sass14Operation_CRTPIvNS_7InspectEEclEPNS_10ExtendRuleE W
_ZN4Sass14Operation_CRTPIvNS_7InspectEEclEPNS_10IDSelectorE W
_ZN4Sass14Operation_CRTPIvNS_7InspectEEclEPNS_10Mixin_CallE W
_ZN4Sass14Operation_CRTPIvNS_7InspectEEclEPNS_10ParametersE W
_ZN4Sass14Operation_CRTPIvNS_7InspectEEclEPNS_11DeclarationE W
_ZN4Sass14Operation_CRTPIvNS_7InspectEEclEPNS_11Import_StubE W
_ZN4Sass14Operation_CRTPIvNS_7InspectEEclEPNS_11Media_QueryE W
_ZN4Sass14Operation_CRTPIvNS_7InspectEEclEPNS_11WarningRuleE W
_ZN4Sass14Operation_CRTPIvNS_7InspectEEclEPNS_12CssMediaRuleE W
_ZN4Sass14Operation_CRTPIvNS_7InspectEEclEPNS_12Custom_ErrorE W
_ZN4Sass14Operation_CRTPIvNS_7InspectEEclEPNS_12SelectorListE W
_ZN4Sass14Operation_CRTPIvNS_7InspectEEclEPNS_12SupportsRuleE W
_ZN4Sass14Operation_CRTPIvNS_7InspectEEclEPNS_12TypeSelectorE W
_ZN4Sass14Operation_CRTPIvNS_7InspectEEclEPNS_13At_Root_QueryE W
_ZN4Sass14Operation_CRTPIvNS_7InspectEEclEPNS_13ClassSelectorE W
_ZN4Sass14Operation_CRTPIvNS_7InspectEEclEPNS_13CssMediaQueryE W
_ZN4Sass14Operation_CRTPIvNS_7InspectEEclEPNS_13Function_CallE W
_ZN4Sass14Operation_CRTPIvNS_7InspectEEclEPNS_13Keyframe_RuleE W
_ZN4Sass14Operation_CRTPIvNS_7InspectEEclEPNS_13String_QuotedE W
_ZN4Sass14Operation_CRTPIvNS_7InspectEEclEPNS_13String_SchemaE W
_ZN4Sass14Operation_CRTPIvNS_7InspectEEclEPNS_14Custom_WarningE W
_ZN4Sass14Operation_CRTPIvNS_7InspectEEclEPNS_14PseudoSelectorE W
_ZN4Sass14Operation_CRTPIvNS_7InspectEEclEPNS_15ComplexSelectorE W
_ZN4Sass14Operation_CRTPIvNS_7InspectEEclEPNS_15Selector_SchemaE W
_ZN4Sass14Operation_CRTPIvNS_7InspectEEclEPNS_15String_ConstantE W
_ZN4Sass14Operation_CRTPIvNS_7InspectEEclEPNS_16CompoundSelectorE W
_ZN4Sass14Operation_CRTPIvNS_7InspectEEclEPNS_16Parent_ReferenceE W
_ZN4Sass14Operation_CRTPIvNS_7InspectEEclEPNS_16SupportsNegationE W
_ZN4Sass14Operation_CRTPIvNS_7InspectEEclEPNS_16Unary_ExpressionE W
_ZN4Sass14Operation_CRTPIvNS_7InspectEEclEPNS_17AttributeSelectorE W
_ZN4Sass14Operation_CRTPIvNS_7InspectEEclEPNS_17Binary_ExpressionE W
_ZN4Sass14Operation_CRTPIvNS_7InspectEEclEPNS_17SelectorComponentE W
_ZN4Sass14Operation_CRTPIvNS_7InspectEEclEPNS_17SupportsConditionE W
_ZN4Sass14Operation_CRTPIvNS_7InspectEEclEPNS_17SupportsOperationE W
_ZN4Sass14Operation_CRTPIvNS_7InspectEEclEPNS_18SelectorCombinatorE W
_ZN4Sass14Operation_CRTPIvNS_7InspectEEclEPNS_19PlaceholderSelectorE W
_ZN4Sass14Operation_CRTPIvNS_7InspectEEclEPNS_19SupportsDeclarationE W
_ZN4Sass14Operation_CRTPIvNS_7InspectEEclEPNS_22Media_Query_ExpressionE W
_ZN4Sass14Operation_CRTPIvNS_7InspectEEclEPNS_22Supports_InterpolationE W
_ZN4Sass14Operation_CRTPIvNS_7InspectEEclEPNS_2IfE W
_ZN4Sass14Operation_CRTPIvNS_7InspectEEclEPNS_3MapE W
_ZN4Sass14Operation_CRTPIvNS_7InspectEEclEPNS_4ListE W
_ZN4Sass14Operation_CRTPIvNS_7InspectEEclEPNS_4NullE W
_ZN4Sass14Operation_CRTPIvNS_7InspectEEclEPNS_5BlockE W
_ZN4Sass14Operation_CRTPIvNS_7InspectEEclEPNS_5ColorE W
_ZN4Sass14Operation_CRTPIvNS_7InspectEEclEPNS_5TraceE W
_ZN4Sass14Operation_CRTPIvNS_7InspectEEclEPNS_6AtRuleE W
_ZN4Sass14Operation_CRTPIvNS_7InspectEEclEPNS_6BubbleE W
_ZN4Sass14Operation_CRTPIvNS_7InspectEEclEPNS_6ImportE W
_ZN4Sass14Operation_CRTPIvNS_7InspectEEclEPNS_6NumberE W
_ZN4Sass14Operation_CRTPIvNS_7InspectEEclEPNS_6ReturnE W
_ZN4Sass14Operation_CRTPIvNS_7InspectEEclEPNS_7BooleanE W
_ZN4Sass14Operation_CRTPIvNS_7InspectEEclEPNS_7CommentE W
_ZN4Sass14Operation_CRTPIvNS_7InspectEEclEPNS_7ContentE W
_ZN4Sass14Operation_CRTPIvNS_7InspectEEclEPNS_7ForRuleE W
_ZN4Sass14Operation_CRTPIvNS_7InspectEEclEPNS_8ArgumentE W
_ZN4Sass14Operation_CRTPIvNS_7InspectEEclEPNS_8AST_NodeE W
_ZN4Sass14Operation_CRTPIvNS_7InspectEEclEPNS_8EachRuleE W
_ZN4Sass14Operation_CRTPIvNS_7InspectEEclEPNS_8FunctionE W
_ZN4Sass14Operation_CRTPIvNS_7InspectEEclEPNS_8VariableE W
_ZN4Sass14Operation_CRTPIvNS_7InspectEEclEPNS_9ArgumentsE W
_ZN4Sass14Operation_CRTPIvNS_7InspectEEclEPNS_9DebugRuleE W
_ZN4Sass14Operation_CRTPIvNS_7InspectEEclEPNS_9ErrorRuleE W
_ZN4Sass14Operation_CRTPIvNS_7InspectEEclEPNS_9MediaRuleE W
_ZN4Sass14Operation_CRTPIvNS_7InspectEEclEPNS_9ParameterE W
_ZN4Sass14Operation_CRTPIvNS_7InspectEEclEPNS_9StyleRuleE W
_ZN4Sass14Operation_CRTPIvNS_7InspectEEclEPNS_9WhileRuleE W
_ZN4Sass14Operation_CRTPIvNS_8ExtenderEE8fallbackIPNS_10AssignmentEEEvT_ W
_ZN4Sass14Operation_CRTPIvNS_8ExtenderEE8fallbackIPNS_10AtRootRuleEEEvT_ W
_ZN4Sass14Operation_CRTPIvNS_8ExtenderEE8fallbackIPNS_10Color_HSLAEEEvT_ W
_ZN4Sass14Operation_CRTPIvNS_8ExtenderEE8fallbackIPNS_10Color_RGBAEEEvT_ W
_ZN4Sass14Operation_CRTPIvNS_8ExtenderEE8fallbackIPNS_10DefinitionEEEvT_ W
_ZN4Sass14Operation_CRTPIvNS_8ExtenderEE8fallbackIPNS_10ExtendRuleEEEvT_ W
_ZN4Sass14Operation_CRTPIvNS_8ExtenderEE8fallbackIPNS_10IDSelectorEEEvT_ W
_ZN4Sass14Operation_CRTPIvNS_8ExtenderEE8fallbackIPNS_10Mixin_CallEEEvT_ W
_ZN4Sass14Operation_CRTPIvNS_8ExtenderEE8fallbackIPNS_10ParametersEEEvT_ W
_ZN4Sass14Operation_CRTPIvNS_8ExtenderEE8fallbackIPNS_11DeclarationEEEvT_ W
_ZN4Sass14Operation_CRTPIvNS_8ExtenderEE8fallbackIPNS_11Import_StubEEEvT_ W
_ZN4Sass14Operation_CRTPIvNS_8ExtenderEE8fallbackIPNS_11Media_QueryEEEvT_ W
_ZN4Sass14Operation_CRTPIvNS_8ExtenderEE8fallbackIPNS_11WarningRuleEEEvT_ W
_ZN4Sass14Operation_CRTPIvNS_8ExtenderEE8fallbackIPNS_12CssMediaRuleEEEvT_ W
_ZN4Sass14Operation_CRTPIvNS_8ExtenderEE8fallbackIPNS_12Custom_ErrorEEEvT_ W
_ZN4Sass14Operation_CRTPIvNS_8ExtenderEE8fallbackIPNS_12SelectorListEEEvT_ W
_ZN4Sass14Operation_CRTPIvNS_8ExtenderEE8fallbackIPNS_12SupportsRuleEEEvT_ W
_ZN4Sass14Operation_CRTPIvNS_8ExtenderEE8fallbackIPNS_12TypeSelectorEEEvT_ W
_ZN4Sass14Operation_CRTPIvNS_8ExtenderEE8fallbackIPNS_13At_Root_QueryEEEvT_ W
_ZN4Sass14Operation_CRTPIvNS_8ExtenderEE8fallbackIPNS_13ClassSelectorEEEvT_ W
_ZN4Sass14Operation_CRTPIvNS_8ExtenderEE8fallbackIPNS_13CssMediaQueryEEEvT_ W
_ZN4Sass14Operation_CRTPIvNS_8ExtenderEE8fallbackIPNS_13Function_CallEEEvT_ W
_ZN4Sass14Operation_CRTPIvNS_8ExtenderEE8fallbackIPNS_13Keyframe_RuleEEEvT_ W
_ZN4Sass14Operation_CRTPIvNS_8ExtenderEE8fallbackIPNS_13String_QuotedEEEvT_ W
_ZN4Sass14Operation_CRTPIvNS_8ExtenderEE8fallbackIPNS_13String_SchemaEEEvT_ W
_ZN4Sass14Operation_CRTPIvNS_8ExtenderEE8fallbackIPNS_14Custom_WarningEEEvT_ W
_ZN4Sass14Operation_CRTPIvNS_8ExtenderEE8fallbackIPNS_14PseudoSelectorEEEvT_ W
_ZN4Sass14Operation_CRTPIvNS_8ExtenderEE8fallbackIPNS_15ComplexSelectorEEEvT_ W
_ZN4Sass14Operation_CRTPIvNS_8ExtenderEE8fallbackIPNS_15Selector_SchemaEEEvT_ W
_ZN4Sass14Operation_CRTPIvNS_8ExtenderEE8fallbackIPNS_15String_ConstantEEEvT_ W
_ZN4Sass14Operation_CRTPIvNS_8ExtenderEE8fallbackIPNS_16CompoundSelectorEEEvT_ W
_ZN4Sass14Operation_CRTPIvNS_8ExtenderEE8fallbackIPNS_16Parent_ReferenceEEEvT_ W
_ZN4Sass14Operation_CRTPIvNS_8ExtenderEE8fallbackIPNS_16SupportsNegationEEEvT_ W
_ZN4Sass14Operation_CRTPIvNS_8ExtenderEE8fallbackIPNS_16Unary_ExpressionEEEvT_ W
_ZN4Sass14Operation_CRTPIvNS_8ExtenderEE8fallbackIPNS_17AttributeSelectorEEEvT_ W
_ZN4Sass14Operation_CRTPIvNS_8ExtenderEE8fallbackIPNS_17Binary_ExpressionEEEvT_ W
_ZN4Sass14Operation_CRTPIvNS_8ExtenderEE8fallbackIPNS_17SelectorComponentEEEvT_ W
_ZN4Sass14Operation_CRTPIvNS_8ExtenderEE8fallbackIPNS_17SupportsConditionEEEvT_ W
_ZN4Sass14Operation_CRTPIvNS_8ExtenderEE8fallbackIPNS_17SupportsOperationEEEvT_ W
_ZN4Sass14Operation_CRTPIvNS_8ExtenderEE8fallbackIPNS_18SelectorCombinatorEEEvT_ W
_ZN4Sass14Operation_CRTPIvNS_8ExtenderEE8fallbackIPNS_19PlaceholderSelectorEEEvT_ W
_ZN4Sass14Operation_CRTPIvNS_8ExtenderEE8fallbackIPNS_19SupportsDeclarationEEEvT_ W
_ZN4Sass14Operation_CRTPIvNS_8ExtenderEE8fallbackIPNS_22Media_Query_ExpressionEEEvT_ W
_ZN4Sass14Operation_CRTPIvNS_8ExtenderEE8fallbackIPNS_22Supports_InterpolationEEEvT_ W
_ZN4Sass14Operation_CRTPIvNS_8ExtenderEE8fallbackIPNS_2IfEEEvT_ W
_ZN4Sass14Operation_CRTPIvNS_8ExtenderEE8fallbackIPNS_3MapEEEvT_ W
_ZN4Sass14Operation_CRTPIvNS_8ExtenderEE8fallbackIPNS_4ListEEEvT_ W
_ZN4Sass14Operation_CRTPIvNS_8ExtenderEE8fallbackIPNS_4NullEEEvT_ W
_ZN4Sass14Operation_CRTPIvNS_8ExtenderEE8fallbackIPNS_5BlockEEEvT_ W
_ZN4Sass14Operation_CRTPIvNS_8ExtenderEE8fallbackIPNS_5ColorEEEvT_ W
_ZN4Sass14Operation_CRTPIvNS_8ExtenderEE8fallbackIPNS_5TraceEEEvT_ W
_ZN4Sass14Operation_CRTPIvNS_8ExtenderEE8fallbackIPNS_6AtRuleEEEvT_ W
_ZN4Sass14Operation_CRTPIvNS_8ExtenderEE8fallbackIPNS_6BubbleEEEvT_ W
_ZN4Sass14Operation_CRTPIvNS_8ExtenderEE8fallbackIPNS_6ImportEEEvT_ W
_ZN4Sass14Operation_CRTPIvNS_8ExtenderEE8fallbackIPNS_6NumberEEEvT_ W
_ZN4Sass14Operation_CRTPIvNS_8ExtenderEE8fallbackIPNS_6ReturnEEEvT_ W
_ZN4Sass14Operation_CRTPIvNS_8ExtenderEE8fallbackIPNS_7BooleanEEEvT_ W
_ZN4Sass14Operation_CRTPIvNS_8ExtenderEE8fallbackIPNS_7CommentEEEvT_ W
_ZN4Sass14Operation_CRTPIvNS_8ExtenderEE8fallbackIPNS_7ContentEEEvT_ W
_ZN4Sass14Operation_CRTPIvNS_8ExtenderEE8fallbackIPNS_7ForRuleEEEvT_ W
_ZN4Sass14Operation_CRTPIvNS_8ExtenderEE8fallbackIPNS_8ArgumentEEEvT_ W
_ZN4Sass14Operation_CRTPIvNS_8ExtenderEE8fallbackIPNS_8AST_NodeEEEvT_ W
_ZN4Sass14Operation_CRTPIvNS_8ExtenderEE8fallbackIPNS_8EachRuleEEEvT_ W
_ZN4Sass14Operation_CRTPIvNS_8ExtenderEE8fallbackIPNS_8FunctionEEEvT_ W
_ZN4Sass14Operation_CRTPIvNS_8ExtenderEE8fallbackIPNS_8VariableEEEvT_ W
_ZN4Sass14Operation_CRTPIvNS_8ExtenderEE8fallbackIPNS_9ArgumentsEEEvT_ W
_ZN4Sass14Operation_CRTPIvNS_8ExtenderEE8fallbackIPNS_9DebugRuleEEEvT_ W
_ZN4Sass14Operation_CRTPIvNS_8ExtenderEE8fallbackIPNS_9ErrorRuleEEEvT_ W
_ZN4Sass14Operation_CRTPIvNS_8ExtenderEE8fallbackIPNS_9MediaRuleEEEvT_ W
_ZN4Sass14Operation_CRTPIvNS_8ExtenderEE8fallbackIPNS_9ParameterEEEvT_ W
_ZN4Sass14Operation_CRTPIvNS_8ExtenderEE8fallbackIPNS_9StyleRuleEEEvT_ W
_ZN4Sass14Operation_CRTPIvNS_8ExtenderEE8fallbackIPNS_9WhileRuleEEEvT_ W
_ZN4Sass14Operation_CRTPIvNS_8ExtenderEEclEPNS_10AssignmentE W
_ZN4Sass14Operation_CRTPIvNS_8ExtenderEEclEPNS_10AtRootRuleE W
_ZN4Sass14Operation_CRTPIvNS_8ExtenderEEclEPNS_10Color_HSLAE W
_ZN4Sass14Operation_CRTPIvNS_8ExtenderEEclEPNS_10Color_RGBAE W
_ZN4Sass14Operation_CRTPIvNS_8ExtenderEEclEPNS_10DefinitionE W
_ZN4Sass14Operation_CRTPIvNS_8ExtenderEEclEPNS_10ExtendRuleE W
_ZN4Sass14Operation_CRTPIvNS_8ExtenderEEclEPNS_10IDSelectorE W
_ZN4Sass14Operation_CRTPIvNS_8ExtenderEEclEPNS_10Mixin_CallE W
_ZN4Sass14Operation_CRTPIvNS_8ExtenderEEclEPNS_10ParametersE W
_ZN4Sass14Operation_CRTPIvNS_8ExtenderEEclEPNS_11DeclarationE W
_ZN4Sass14Operation_CRTPIvNS_8ExtenderEEclEPNS_11Import_StubE W
_ZN4Sass14Operation_CRTPIvNS_8ExtenderEEclEPNS_11Media_QueryE W
_ZN4Sass14Operation_CRTPIvNS_8ExtenderEEclEPNS_11WarningRuleE W
_ZN4Sass14Operation_CRTPIvNS_8ExtenderEEclEPNS_12CssMediaRuleE W
_ZN4Sass14Operation_CRTPIvNS_8ExtenderEEclEPNS_12Custom_ErrorE W
_ZN4Sass14Operation_CRTPIvNS_8ExtenderEEclEPNS_12SelectorListE W
_ZN4Sass14Operation_CRTPIvNS_8ExtenderEEclEPNS_12SupportsRuleE W
_ZN4Sass14Operation_CRTPIvNS_8ExtenderEEclEPNS_12TypeSelectorE W
_ZN4Sass14Operation_CRTPIvNS_8ExtenderEEclEPNS_13At_Root_QueryE W
_ZN4Sass14Operation_CRTPIvNS_8ExtenderEEclEPNS_13ClassSelectorE W
_ZN4Sass14Operation_CRTPIvNS_8ExtenderEEclEPNS_13CssMediaQueryE W
_ZN4Sass14Operation_CRTPIvNS_8ExtenderEEclEPNS_13Function_CallE W
_ZN4Sass14Operation_CRTPIvNS_8ExtenderEEclEPNS_13Keyframe_RuleE W
_ZN4Sass14Operation_CRTPIvNS_8ExtenderEEclEPNS_13String_QuotedE W
_ZN4Sass14Operation_CRTPIvNS_8ExtenderEEclEPNS_13String_SchemaE W
_ZN4Sass14Operation_CRTPIvNS_8ExtenderEEclEPNS_14Custom_WarningE W
_ZN4Sass14Operation_CRTPIvNS_8ExtenderEEclEPNS_14PseudoSelectorE W
_ZN4Sass14Operation_CRTPIvNS_8ExtenderEEclEPNS_15ComplexSelectorE W
_ZN4Sass14Operation_CRTPIvNS_8ExtenderEEclEPNS_15Selector_SchemaE W
_ZN4Sass14Operation_CRTPIvNS_8ExtenderEEclEPNS_15String_ConstantE W
_ZN4Sass14Operation_CRTPIvNS_8ExtenderEEclEPNS_16CompoundSelectorE W
_ZN4Sass14Operation_CRTPIvNS_8ExtenderEEclEPNS_16Parent_ReferenceE W
_ZN4Sass14Operation_CRTPIvNS_8ExtenderEEclEPNS_16SupportsNegationE W
_ZN4Sass14Operation_CRTPIvNS_8ExtenderEEclEPNS_16Unary_ExpressionE W
_ZN4Sass14Operation_CRTPIvNS_8ExtenderEEclEPNS_17AttributeSelectorE W
_ZN4Sass14Operation_CRTPIvNS_8ExtenderEEclEPNS_17Binary_ExpressionE W
_ZN4Sass14Operation_CRTPIvNS_8ExtenderEEclEPNS_17SelectorComponentE W
_ZN4Sass14Operation_CRTPIvNS_8ExtenderEEclEPNS_17SupportsConditionE W
_ZN4Sass14Operation_CRTPIvNS_8ExtenderEEclEPNS_17SupportsOperationE W
_ZN4Sass14Operation_CRTPIvNS_8ExtenderEEclEPNS_18SelectorCombinatorE W
_ZN4Sass14Operation_CRTPIvNS_8ExtenderEEclEPNS_19PlaceholderSelectorE W
_ZN4Sass14Operation_CRTPIvNS_8ExtenderEEclEPNS_19SupportsDeclarationE W
_ZN4Sass14Operation_CRTPIvNS_8ExtenderEEclEPNS_22Media_Query_ExpressionE W
_ZN4Sass14Operation_CRTPIvNS_8ExtenderEEclEPNS_22Supports_InterpolationE W
_ZN4Sass14Operation_CRTPIvNS_8ExtenderEEclEPNS_2IfE W
_ZN4Sass14Operation_CRTPIvNS_8ExtenderEEclEPNS_3MapE W
_ZN4Sass14Operation_CRTPIvNS_8ExtenderEEclEPNS_4ListE W
_ZN4Sass14Operation_CRTPIvNS_8ExtenderEEclEPNS_4NullE W
_ZN4Sass14Operation_CRTPIvNS_8ExtenderEEclEPNS_5BlockE W
_ZN4Sass14Operation_CRTPIvNS_8ExtenderEEclEPNS_5ColorE W
_ZN4Sass14Operation_CRTPIvNS_8ExtenderEEclEPNS_5TraceE W
_ZN4Sass14Operation_CRTPIvNS_8ExtenderEEclEPNS_6AtRuleE W
_ZN4Sass14Operation_CRTPIvNS_8ExtenderEEclEPNS_6BubbleE W
_ZN4Sass14Operation_CRTPIvNS_8ExtenderEEclEPNS_6ImportE W
_ZN4Sass14Operation_CRTPIvNS_8ExtenderEEclEPNS_6NumberE W
_ZN4Sass14Operation_CRTPIvNS_8ExtenderEEclEPNS_6ReturnE W
_ZN4Sass14Operation_CRTPIvNS_8ExtenderEEclEPNS_7BooleanE W
_ZN4Sass14Operation_CRTPIvNS_8ExtenderEEclEPNS_7CommentE W
_ZN4Sass14Operation_CRTPIvNS_8ExtenderEEclEPNS_7ContentE W
_ZN4Sass14Operation_CRTPIvNS_8ExtenderEEclEPNS_7ForRuleE W
_ZN4Sass14Operation_CRTPIvNS_8ExtenderEEclEPNS_8ArgumentE W
_ZN4Sass14Operation_CRTPIvNS_8ExtenderEEclEPNS_8AST_NodeE W
_ZN4Sass14Operation_CRTPIvNS_8ExtenderEEclEPNS_8EachRuleE W
_ZN4Sass14Operation_CRTPIvNS_8ExtenderEEclEPNS_8FunctionE W
_ZN4Sass14Operation_CRTPIvNS_8ExtenderEEclEPNS_8VariableE W
_ZN4Sass14Operation_CRTPIvNS_8ExtenderEEclEPNS_9ArgumentsE W
_ZN4Sass14Operation_CRTPIvNS_8ExtenderEEclEPNS_9DebugRuleE W
_ZN4Sass14Operation_CRTPIvNS_8ExtenderEEclEPNS_9ErrorRuleE W
_ZN4Sass14Operation_CRTPIvNS_8ExtenderEEclEPNS_9MediaRuleE W
_ZN4Sass14Operation_CRTPIvNS_8ExtenderEEclEPNS_9ParameterE W
_ZN4Sass14Operation_CRTPIvNS_8ExtenderEEclEPNS_9StyleRuleE W
_ZN4Sass14Operation_CRTPIvNS_8ExtenderEEclEPNS_9WhileRuleE W
_ZN4Sass14PseudoSelector12withSelectorENS_10SharedImplINS_12SelectorListEEE T
_ZN4Sass14PseudoSelector13cloneChildrenEv T
_ZN4Sass14PseudoSelector17getPseudoSelectorEv W
_ZN4Sass14PseudoSelector7performEPNS_9OperationINSt7__cxx1112basic_stringIcSt11char_traitsIcESaIcEEEEE W
_ZN4Sass14PseudoSelector7performEPNS_9OperationIP10Sass_ValueEE W
_ZN4Sass14PseudoSelector7performEPNS_9OperationIPNS_10ExpressionEEE W
_ZN4Sass14PseudoSelector7performEPNS_9OperationIPNS_17SupportsConditionEEE W
_ZN4Sass14PseudoSelector7performEPNS_9OperationIPNS_5ValueEEE W
_ZN4Sass14PseudoSelector7performEPNS_9OperationIPNS_8AST_NodeEEE W
_ZN4Sass14PseudoSelector7performEPNS_9OperationIPNS_8SelectorEEE W
_ZN4Sass14PseudoSelector7performEPNS_9OperationIPNS_9StatementEEE W
_ZN4Sass14PseudoSelector7performEPNS_9OperationIvEE W
_ZN4Sass14PseudoSelector9unifyWithEPNS_16CompoundSelectorE T
_ZN4Sass14PseudoSelectorC1ENS_10SourceSpanENSt7__cxx1112basic_stringIcSt11char_traitsIcESaIcEEEb T
_ZN4Sass14PseudoSelectorC1EPKS0_ T
_ZN4Sass14PseudoSelectorC2ENS_10SourceSpanENSt7__cxx1112basic_stringIcSt11char_traitsIcESaIcEEEb T
_ZN4Sass14PseudoSelectorC2EPKS0_ T
_ZN4Sass14PseudoSelectorD0Ev W
_ZN4Sass14PseudoSelectorD1Ev W
_ZN4Sass14PseudoSelectorD2Ev W
_ZN4Sass14SimpleSelector13getIdSelectorEv W
_ZN4Sass14SimpleSelector13wrapInComplexEv T
_ZN4Sass14SimpleSelector14wrapInCompoundEv T
_ZN4Sass14SimpleSelector15getTypeSelectorEv W
_ZN4Sass14SimpleSelector15has_placeholderEv T
_ZN4Sass14SimpleSelector17getPseudoSelectorEv W
_ZN4Sass14SimpleSelector7performEPNS_9OperationINSt7__cxx1112basic_stringIcSt11char_traitsIcESaIcEEEEE W
_ZN4Sass14SimpleSelector7performEPNS_9OperationIP10Sass_ValueEE W
_ZN4Sass14SimpleSelector7performEPNS_9OperationIPNS_10ExpressionEEE W
_ZN4Sass14SimpleSelector7performEPNS_9OperationIPNS_17SupportsConditionEEE W
_ZN4Sass14SimpleSelector7performEPNS_9OperationIPNS_5ValueEEE W
_ZN4Sass14SimpleSelector7performEPNS_9OperationIPNS_8AST_NodeEEE W
_ZN4Sass14SimpleSelector7performEPNS_9OperationIPNS_8SelectorEEE W
_ZN4Sass14SimpleSelector7performEPNS_9OperationIPNS_9StatementEEE W
_ZN4Sass14SimpleSelector7performEPNS_9OperationIvEE W
_ZN4Sass14SimpleSelector9unifyWithEPNS_16CompoundSelectorE T
_ZN4Sass14SimpleSelectorC1ENS_10SourceSpanENSt7__cxx1112basic_stringIcSt11char_traitsIcESaIcEEE T
_ZN4Sass14SimpleSelectorC1EPKS0_ T
_ZN4Sass14SimpleSelectorC2ENS_10SourceSpanENSt7__cxx1112basic_stringIcSt11char_traitsIcESaIcEEE T
_ZN4Sass14SimpleSelectorC2EPKS0_ T
_ZN4Sass14SimpleSelectorD0Ev W
_ZN4Sass14SimpleSelectorD1Ev W
_ZN4Sass14SimpleSelectorD2Ev W
_ZN4Sass14sort_importersERKP13Sass_ImporterS3_ W
_ZN4Sass14string_to_unitERKNSt7__cxx1112basic_stringIcSt11char_traitsIcESaIcEEE T
_ZN4Sass14unit_to_stringENS_8UnitTypeE T
_ZN4Sass15check_bom_charsEPKcS1_PKhm T
_ZN4Sass15ComplexSelector10wrapInListEv T
_ZN4Sass15ComplexSelector13cloneChildrenEv T
_ZN4Sass15ComplexSelector19resolve_parent_refsESt6vectorINS_10SharedImplINS_12SelectorListEEESaIS4_EERS1_INS_9BacktraceESaIS7_EEb T
_ZN4Sass15ComplexSelector7performEPNS_9OperationINSt7__cxx1112basic_stringIcSt11char_traitsIcESaIcEEEEE W
_ZN4Sass15ComplexSelector7performEPNS_9OperationIP10Sass_ValueEE W
_ZN4Sass15ComplexSelector7performEPNS_9OperationIPNS_10ExpressionEEE W
_ZN4Sass15ComplexSelector7performEPNS_9OperationIPNS_17SupportsConditionEEE W
_ZN4Sass15ComplexSelector7performEPNS_9OperationIPNS_5ValueEEE W
_ZN4Sass15ComplexSelector7performEPNS_9OperationIPNS_8AST_NodeEEE W
_ZN4Sass15ComplexSelector7performEPNS_9OperationIPNS_8SelectorEEE W
_ZN4Sass15ComplexSelector7performEPNS_9OperationIPNS_9StatementEEE W
_ZN4Sass15ComplexSelector7performEPNS_9OperationIvEE W
_ZN4Sass15ComplexSelector9unifyWithEPS0_ T
_ZN4Sass15ComplexSelectorC1ENS_10SourceSpanE T
_ZN4Sass15ComplexSelectorC1EPKS0_ T
_ZN4Sass15ComplexSelectorC2ENS_10SourceSpanE T
_ZN4Sass15ComplexSelectorC2EPKS0_ T
_ZN4Sass15ComplexSelectorD0Ev W
_ZN4Sass15ComplexSelectorD1Ev W
_ZN4Sass15ComplexSelectorD2Ev W
_ZN4Sass15deprecated_bindENSt7__cxx1112basic_stringIcSt11char_traitsIcESaIcEEENS_10SourceSpanE T
_ZN4Sass15make_c_functionEP13Sass_FunctionRNS_7ContextE T
_ZN4Sass15number_has_zeroERKNSt7__cxx1112basic_stringIcSt11char_traitsIcESaIcEEE T
_ZN4Sass15ParentStatement11has_contentEv T
_ZN4Sass15ParentStatementC1ENS_10SourceSpanENS_10SharedImplINS_5BlockEEE T
_ZN4Sass15ParentStatementC1EPKS0_ T
_ZN4Sass15ParentStatementC2ENS_10SourceSpanENS_10SharedImplINS_5BlockEEE T
_ZN4Sass15ParentStatementC2EPKS0_ T
_ZN4Sass15read_css_stringERKNSt7__cxx1112basic_stringIcSt11char_traitsIcESaIcEEEb T
_ZN4Sass15sass_op_to_nameE7Sass_OP T
_ZN4Sass15Selector_Schema7performEPNS_9OperationINSt7__cxx1112basic_stringIcSt11char_traitsIcESaIcEEEEE W
_ZN4Sass15Selector_Schema7performEPNS_9OperationIP10Sass_ValueEE W
_ZN4Sass15Selector_Schema7performEPNS_9OperationIPNS_10ExpressionEEE W
_ZN4Sass15Selector_Schema7performEPNS_9OperationIPNS_17SupportsConditionEEE W
_ZN4Sass15Selector_Schema7performEPNS_9OperationIPNS_5ValueEEE W
_ZN4Sass15Selector_Schema7performEPNS_9OperationIPNS_8AST_NodeEEE W
_ZN4Sass15Selector_Schema7performEPNS_9OperationIPNS_8SelectorEEE W
_ZN4Sass15Selector_Schema7performEPNS_9OperationIPNS_9StatementEEE W
_ZN4Sass15Selector_Schema7performEPNS_9OperationIvEE W
_ZN4Sass15Selector_SchemaC1ENS_10SourceSpanENS_10SharedImplINS_6StringEEE T
_ZN4Sass15Selector_SchemaC1EPKS0_ T
_ZN4Sass15Selector_SchemaC2ENS_10SourceSpanENS_10SharedImplINS_6StringEEE T
_ZN4Sass15Selector_SchemaC2EPKS0_ T
_ZN4Sass15Selector_SchemaD0Ev W
_ZN4Sass15Selector_SchemaD1Ev W
_ZN4Sass15Selector_SchemaD2Ev W
_ZN4Sass15String_Constant5rtrimEv T
_ZN4Sass15String_Constant7performEPNS_9OperationINSt7__cxx1112basic_stringIcSt11char_traitsIcESaIcEEEEE W
_ZN4Sass15String_Constant7performEPNS_9OperationIP10Sass_ValueEE W
_ZN4Sass15String_Constant7performEPNS_9OperationIPNS_10ExpressionEEE W
_ZN4Sass15String_Constant7performEPNS_9OperationIPNS_17SupportsConditionEEE W
_ZN4Sass15String_Constant7performEPNS_9OperationIPNS_5ValueEEE W
_ZN4Sass15String_Constant7performEPNS_9OperationIPNS_8AST_NodeEEE W
_ZN4Sass15String_Constant7performEPNS_9OperationIPNS_8SelectorEEE W
_ZN4Sass15String_Constant7performEPNS_9OperationIPNS_9StatementEEE W
_ZN4Sass15String_Constant7performEPNS_9OperationIvEE W
_ZN4Sass15String_ConstantC1ENS_10SourceSpanENSt7__cxx1112basic_stringIcSt11char_traitsIcESaIcEEEb T
_ZN4Sass15String_ConstantC1ENS_10SourceSpanEPKcb T
_ZN4Sass15String_ConstantC1ENS_10SourceSpanEPKcS3_b T
_ZN4Sass15String_ConstantC1ENS_10SourceSpanERKNS_5TokenEb T
_ZN4Sass15String_ConstantC1EPKS0_ T
_ZN4Sass15String_ConstantC2ENS_10SourceSpanENSt7__cxx1112basic_stringIcSt11char_traitsIcESaIcEEEb T
_ZN4Sass15String_ConstantC2ENS_10SourceSpanEPKcb T
_ZN4Sass15String_ConstantC2ENS_10SourceSpanEPKcS3_b T
_ZN4Sass15String_ConstantC2ENS_10SourceSpanERKNS_5TokenEb T
_ZN4Sass15String_ConstantC2EPKS0_ T
_ZN4Sass15String_ConstantD0Ev W
_ZN4Sass15String_ConstantD1Ev W
_ZN4Sass15String_ConstantD2Ev W
_ZN4Sass16CompoundSelector11getCompoundEv W
_ZN4Sass16CompoundSelector12sortChildrenEv T
_ZN4Sass16CompoundSelector13cloneChildrenEv T
_ZN4Sass16CompoundSelector19resolve_parent_refsESt6vectorINS_10SharedImplINS_12SelectorListEEESaIS4_EERS1_INS_9BacktraceESaIS7_EEb T
_ZN4Sass16CompoundSelector7performEPNS_9OperationINSt7__cxx1112basic_stringIcSt11char_traitsIcESaIcEEEEE W
_ZN4Sass16CompoundSelector7performEPNS_9OperationIP10Sass_ValueEE W
_ZN4Sass16CompoundSelector7performEPNS_9OperationIPNS_10ExpressionEEE W
_ZN4Sass16CompoundSelector7performEPNS_9OperationIPNS_17SupportsConditionEEE W
_ZN4Sass16CompoundSelector7performEPNS_9OperationIPNS_5ValueEEE W
_ZN4Sass16CompoundSelector7performEPNS_9OperationIPNS_8AST_NodeEEE W
_ZN4Sass16CompoundSelector7performEPNS_9OperationIPNS_8SelectorEEE W
_ZN4Sass16CompoundSelector7performEPNS_9OperationIPNS_9StatementEEE W
_ZN4Sass16CompoundSelector7performEPNS_9OperationIvEE W
_ZN4Sass16CompoundSelector9unifyWithEPS0_ T
_ZN4Sass16CompoundSelectorC1ENS_10SourceSpanEb T
_ZN4Sass16CompoundSelectorC1EPKS0_ T
_ZN4Sass16CompoundSelectorC2ENS_10SourceSpanEb T
_ZN4Sass16CompoundSelectorC2EPKS0_ T
_ZN4Sass16CompoundSelectorD0Ev W
_ZN4Sass16CompoundSelectorD1Ev W
_ZN4Sass16CompoundSelectorD2Ev W
_ZN4Sass16evacuate_escapesERKNSt7__cxx1112basic_stringIcSt11char_traitsIcESaIcEEE T
_ZN4Sass16is_color_doubletEddd T
_ZN4Sass16newline_to_spaceERNSt7__cxx1112basic_stringIcSt11char_traitsIcESaIcEEE T
_ZN4Sass16Parent_Reference7performEPNS_9OperationINSt7__cxx1112basic_stringIcSt11char_traitsIcESaIcEEEEE W
_ZN4Sass16Parent_Reference7performEPNS_9OperationIP10Sass_ValueEE W
_ZN4Sass16Parent_Reference7performEPNS_9OperationIPNS_10ExpressionEEE W
_ZN4Sass16Parent_Reference7performEPNS_9OperationIPNS_17SupportsConditionEEE W
_ZN4Sass16Parent_Reference7performEPNS_9OperationIPNS_5ValueEEE W
_ZN4Sass16Parent_Reference7performEPNS_9OperationIPNS_8AST_NodeEEE W
_ZN4Sass16Parent_Reference7performEPNS_9OperationIPNS_8SelectorEEE W
_ZN4Sass16Parent_Reference7performEPNS_9OperationIPNS_9StatementEEE W
_ZN4Sass16Parent_Reference7performEPNS_9OperationIvEE W
_ZN4Sass16Parent_ReferenceC1ENS_10SourceSpanE T
_ZN4Sass16Parent_ReferenceC1EPKS0_ T
_ZN4Sass16Parent_ReferenceC2ENS_10SourceSpanE T
_ZN4Sass16Parent_ReferenceC2EPKS0_ T
_ZN4Sass16Parent_ReferenceD0Ev W
_ZN4Sass16Parent_ReferenceD1Ev W
_ZN4Sass16Parent_ReferenceD2Ev W
_ZN4Sass16PtrObjEqualityFnINS_17SelectorComponentEEEbPKT_S4_ W
_ZN4Sass16read_hex_escapesERKNSt7__cxx1112basic_stringIcSt11char_traitsIcESaIcEEE T
_ZN4Sass16sass_copy_stringENSt7__cxx1112basic_stringIcSt11char_traitsIcESaIcEEE T
_ZN4Sass16string_to_outputERKNSt7__cxx1112basic_stringIcSt11char_traitsIcESaIcEEE T
_ZN4Sass16SupportsNegation7performEPNS_9OperationINSt7__cxx1112basic_stringIcSt11char_traitsIcESaIcEEEEE W
_ZN4Sass16SupportsNegation7performEPNS_9OperationIP10Sass_ValueEE W
_ZN4Sass16SupportsNegation7performEPNS_9OperationIPNS_10ExpressionEEE W
_ZN4Sass16SupportsNegation7performEPNS_9OperationIPNS_17SupportsConditionEEE W
_ZN4Sass16SupportsNegation7performEPNS_9OperationIPNS_5ValueEEE W
_ZN4Sass16SupportsNegation7performEPNS_9OperationIPNS_8AST_NodeEEE W
_ZN4Sass16SupportsNegation7performEPNS_9OperationIPNS_8SelectorEEE W
_ZN4Sass16SupportsNegation7performEPNS_9OperationIPNS_9StatementEEE W
_ZN4Sass16SupportsNegation7performEPNS_9OperationIvEE W
_ZN4Sass16SupportsNegationC1ENS_10SourceSpanENS_10SharedImplINS_17SupportsConditionEEE T
_ZN4Sass16SupportsNegationC1EPKS0_ T
_ZN4Sass16SupportsNegationC2ENS_10SourceSpanENS_10SharedImplINS_17SupportsConditionEEE T
_ZN4Sass16SupportsNegationC2EPKS0_ T
_ZN4Sass16SupportsNegationD0Ev W
_ZN4Sass16SupportsNegationD1Ev W
_ZN4Sass16SupportsNegationD2Ev W
_ZN4Sass16traces_to_stringESt6vectorINS_9BacktraceESaIS1_EENSt7__cxx1112basic_stringIcSt11char_traitsIcESaIcEEE T
_ZN4Sass16Unary_Expression7performEPNS_9OperationINSt7__cxx1112basic_stringIcSt11char_traitsIcESaIcEEEEE W
_ZN4Sass16Unary_Expression7performEPNS_9OperationIP10Sass_ValueEE W
_ZN4Sass16Unary_Expression7performEPNS_9OperationIPNS_10ExpressionEEE W
_ZN4Sass16Unary_Expression7performEPNS_9OperationIPNS_17SupportsConditionEEE W
_ZN4Sass16Unary_Expression7performEPNS_9OperationIPNS_5ValueEEE W
_ZN4Sass16Unary_Expression7performEPNS_9OperationIPNS_8AST_NodeEEE W
_ZN4Sass16Unary_Expression7performEPNS_9OperationIPNS_8SelectorEEE W
_ZN4Sass16Unary_Expression7performEPNS_9OperationIPNS_9StatementEEE W
_ZN4Sass16Unary_Expression7performEPNS_9OperationIvEE W
_ZN4Sass16Unary_Expression9type_nameB5cxx11Ev T
_ZN4Sass16Unary_ExpressionC1ENS_10SourceSpanENS0_4TypeENS_10SharedImplINS_10ExpressionEEE T
_ZN4Sass16Unary_ExpressionC1EPKS0_ T
_ZN4Sass16Unary_ExpressionC2ENS_10SourceSpanENS0_4TypeENS_10SharedImplINS_10ExpressionEEE T
_ZN4Sass16Unary_ExpressionC2EPKS0_ T
_ZN4Sass16Unary_ExpressionD0Ev W
_ZN4Sass16Unary_ExpressionD1Ev W
_ZN4Sass16Unary_ExpressionD2Ev W
_ZN4Sass17AttributeSelector7performEPNS_9OperationINSt7__cxx1112basic_stringIcSt11char_traitsIcESaIcEEEEE W
_ZN4Sass17AttributeSelector7performEPNS_9OperationIP10Sass_ValueEE W
_ZN4Sass17AttributeSelector7performEPNS_9OperationIPNS_10ExpressionEEE W
_ZN4Sass17AttributeSelector7performEPNS_9OperationIPNS_17SupportsConditionEEE W
_ZN4Sass17AttributeSelector7performEPNS_9OperationIPNS_5ValueEEE W
_ZN4Sass17AttributeSelector7performEPNS_9OperationIPNS_8AST_NodeEEE W
_ZN4Sass17AttributeSelector7performEPNS_9OperationIPNS_8SelectorEEE W
_ZN4Sass17AttributeSelector7performEPNS_9OperationIPNS_9StatementEEE W
_ZN4Sass17AttributeSelector7performEPNS_9OperationIvEE W
_ZN4Sass17AttributeSelectorC1ENS_10SourceSpanENSt7__cxx1112basic_stringIcSt11char_traitsIcESaIcEEES7_NS_10SharedImplINS_6StringEEEc T
_ZN4Sass17AttributeSelectorC1EPKS0_ T
_ZN4Sass17AttributeSelectorC2ENS_10SourceSpanENSt7__cxx1112basic_stringIcSt11char_traitsIcESaIcEEES7_NS_10SharedImplINS_6StringEEEc T
_ZN4Sass17AttributeSelectorC2EPKS0_ T
_ZN4Sass17AttributeSelectorD0Ev W
_ZN4Sass17AttributeSelectorD1Ev W
_ZN4Sass17AttributeSelectorD2Ev W
_ZN4Sass17Binary_Expression11set_delayedEb T
_ZN4Sass17Binary_Expression7performEPNS_9OperationINSt7__cxx1112basic_stringIcSt11char_traitsIcESaIcEEEEE W
_ZN4Sass17Binary_Expression7performEPNS_9OperationIP10Sass_ValueEE W
_ZN4Sass17Binary_Expression7performEPNS_9OperationIPNS_10ExpressionEEE W
_ZN4Sass17Binary_Expression7performEPNS_9OperationIPNS_17SupportsConditionEEE W
_ZN4Sass17Binary_Expression7performEPNS_9OperationIPNS_5ValueEEE W
_ZN4Sass17Binary_Expression7performEPNS_9OperationIPNS_8AST_NodeEEE W
_ZN4Sass17Binary_Expression7performEPNS_9OperationIPNS_8SelectorEEE W
_ZN4Sass17Binary_Expression7performEPNS_9OperationIPNS_9StatementEEE W
_ZN4Sass17Binary_Expression7performEPNS_9OperationIvEE W
_ZN4Sass17Binary_Expression9separatorB5cxx11Ev T
_ZN4Sass17Binary_Expression9type_nameB5cxx11Ev T
_ZN4Sass17Binary_ExpressionC1ENS_10SourceSpanENS_7OperandENS_10SharedImplINS_10ExpressionEEES5_ T
_ZN4Sass17Binary_ExpressionC1EPKS0_ T
_ZN4Sass17Binary_ExpressionC2ENS_10SourceSpanENS_7OperandENS_10SharedImplINS_10ExpressionEEES5_ T
_ZN4Sass17Binary_ExpressionC2EPKS0_ T
_ZN4Sass17Binary_ExpressionD0Ev W
_ZN4Sass17Binary_ExpressionD1Ev W
_ZN4Sass17Binary_ExpressionD2Ev W
_ZN4Sass17conversion_factorENS_8UnitTypeES0_NS_9UnitClassES1_ T
_ZN4Sass17conversion_factorERKNSt7__cxx1112basic_stringIcSt11char_traitsIcESaIcEEES7_ T
_ZN4Sass17free_string_arrayEPPc T
_ZN4Sass17register_functionERNS_7ContextEPKcPFPNS_8PreValueERNS_11EnvironmentINS_10SharedImplINS_8AST_NodeEEEEESB_S1_S3_NS_10SourceSpanERSt6vectorINS_9BacktraceESaISE_EESD_INS7_INS_12SelectorListEEESaISJ_EESL_EmPSA_ T
_ZN4Sass17register_functionERNS_7ContextEPKcPFPNS_8PreValueERNS_11EnvironmentINS_10SharedImplINS_8AST_NodeEEEEESB_S1_S3_NS_10SourceSpanERSt6vectorINS_9BacktraceESaISE_EESD_INS7_INS_12SelectorListEEESaISJ_EESL_EPSA_ T
_ZN4Sass17sass_op_separatorE7Sass_OP T
_ZN4Sass17SelectorComponent11getCompoundEv W
_ZN4Sass17SelectorComponent13cloneChildrenEv T
_ZN4Sass17SelectorComponent13getCombinatorEv W
_ZN4Sass17SelectorComponent13wrapInComplexEv T
_ZN4Sass17SelectorComponentC1ENS_10SourceSpanEb T
_ZN4Sass17SelectorComponentC1EPKS0_ T
_ZN4Sass17SelectorComponentC2ENS_10SourceSpanEb T
_ZN4Sass17SelectorComponentC2EPKS0_ T
_ZN4Sass17SupportsCondition7performEPNS_9OperationINSt7__cxx1112basic_stringIcSt11char_traitsIcESaIcEEEEE W
_ZN4Sass17SupportsCondition7performEPNS_9OperationIP10Sass_ValueEE W
_ZN4Sass17SupportsCondition7performEPNS_9OperationIPNS_10ExpressionEEE W
_ZN4Sass17SupportsCondition7performEPNS_9OperationIPNS_5ValueEEE W
_ZN4Sass17SupportsCondition7performEPNS_9OperationIPNS_8AST_NodeEEE W
_ZN4Sass17SupportsCondition7performEPNS_9OperationIPNS_8SelectorEEE W
_ZN4Sass17SupportsCondition7performEPNS_9OperationIPNS_9StatementEEE W
_ZN4Sass17SupportsCondition7performEPNS_9OperationIPS0_EE W
_ZN4Sass17SupportsCondition7performEPNS_9OperationIvEE W
_ZN4Sass17SupportsConditionC1ENS_10SourceSpanE T
_ZN4Sass17SupportsConditionC1EPKS0_ T
_ZN4Sass17SupportsConditionC2ENS_10SourceSpanE T
_ZN4Sass17SupportsConditionC2EPKS0_ T
_ZN4Sass17SupportsConditionD0Ev W
_ZN4Sass17SupportsConditionD1Ev W
_ZN4Sass17SupportsConditionD2Ev W
_ZN4Sass17SupportsOperation7performEPNS_9OperationINSt7__cxx1112basic_stringIcSt11char_traitsIcESaIcEEEEE W
_ZN4Sass17SupportsOperation7performEPNS_9OperationIP10Sass_ValueEE W
_ZN4Sass17SupportsOperation7performEPNS_9OperationIPNS_10ExpressionEEE W
_ZN4Sass17SupportsOperation7performEPNS_9OperationIPNS_17SupportsConditionEEE W
_ZN4Sass17SupportsOperation7performEPNS_9OperationIPNS_5ValueEEE W
_ZN4Sass17SupportsOperation7performEPNS_9OperationIPNS_8AST_NodeEEE W
_ZN4Sass17SupportsOperation7performEPNS_9OperationIPNS_8SelectorEEE W
_ZN4Sass17SupportsOperation7performEPNS_9OperationIPNS_9StatementEEE W
_ZN4Sass17SupportsOperation7performEPNS_9OperationIvEE W
_ZN4Sass17SupportsOperationC1ENS_10SourceSpanENS_10SharedImplINS_17SupportsConditionEEES4_NS0_7OperandE T
_ZN4Sass17SupportsOperationC1EPKS0_ T
_ZN4Sass17SupportsOperationC2ENS_10SourceSpanENS_10SharedImplINS_17SupportsConditionEEES4_NS0_7OperandE T
_ZN4Sass17SupportsOperationC2EPKS0_ T
_ZN4Sass17SupportsOperationD0Ev W
_ZN4Sass17SupportsOperationD1Ev W
_ZN4Sass17SupportsOperationD2Ev W
_ZN4Sass18checkForEmptyChildISt6vectorIS1_INS_10SharedImplINS_17SelectorComponentEEESaIS4_EESaIS6_EEEEbRKT_ W
_ZN4Sass18cmpSimpleSelectorsEPNS_14SimpleSelectorES1_ T
_ZN4Sass18listIsSuperslectorERKSt6vectorINS_10SharedImplINS_15ComplexSelectorEEESaIS3_EES7_ T
_ZN4Sass18SelectorCombinator13cloneChildrenEv T
_ZN4Sass18SelectorCombinator13getCombinatorEv W
_ZN4Sass18SelectorCombinator7performEPNS_9OperationINSt7__cxx1112basic_stringIcSt11char_traitsIcESaIcEEEEE W
_ZN4Sass18SelectorCombinator7performEPNS_9OperationIP10Sass_ValueEE W
_ZN4Sass18SelectorCombinator7performEPNS_9OperationIPNS_10ExpressionEEE W
_ZN4Sass18SelectorCombinator7performEPNS_9OperationIPNS_17SupportsConditionEEE W
_ZN4Sass18SelectorCombinator7performEPNS_9OperationIPNS_5ValueEEE W
_ZN4Sass18SelectorCombinator7performEPNS_9OperationIPNS_8AST_NodeEEE W
_ZN4Sass18SelectorCombinator7performEPNS_9OperationIPNS_8SelectorEEE W
_ZN4Sass18SelectorCombinator7performEPNS_9OperationIPNS_9StatementEEE W
_ZN4Sass18SelectorCombinator7performEPNS_9OperationIvEE W
_ZN4Sass18SelectorCombinatorC1ENS_10SourceSpanENS0_10CombinatorEb T
_ZN4Sass18SelectorCombinatorC1EPKS0_ T
_ZN4Sass18SelectorCombinatorC2ENS_10SourceSpanENS0_10CombinatorEb T
_ZN4Sass18SelectorCombinatorC2EPKS0_ T
_ZN4Sass18SelectorCombinatorD0Ev W
_ZN4Sass18SelectorCombinatorD1Ev W
_ZN4Sass18SelectorCombinatorD2Ev W
_ZN4Sass19deprecated_functionENSt7__cxx1112basic_stringIcSt11char_traitsIcESaIcEEENS_10SourceSpanE T
_ZN4Sass19listIsSubsetOrEqualISt6vectorINSt7__cxx1112basic_stringIcSt11char_traitsIcESaIcEEESaIS7_EEEEbRKT_SC_ W
_ZN4Sass19PlaceholderSelector15has_placeholderEv T
_ZN4Sass19PlaceholderSelector7performEPNS_9OperationINSt7__cxx1112basic_stringIcSt11char_traitsIcESaIcEEEEE W
_ZN4Sass19PlaceholderSelector7performEPNS_9OperationIP10Sass_ValueEE W
_ZN4Sass19PlaceholderSelector7performEPNS_9OperationIPNS_10ExpressionEEE W
_ZN4Sass19PlaceholderSelector7performEPNS_9OperationIPNS_17SupportsConditionEEE W
_ZN4Sass19PlaceholderSelector7performEPNS_9OperationIPNS_5ValueEEE W
_ZN4Sass19PlaceholderSelector7performEPNS_9OperationIPNS_8AST_NodeEEE W
_ZN4Sass19PlaceholderSelector7performEPNS_9OperationIPNS_8SelectorEEE W
_ZN4Sass19PlaceholderSelector7performEPNS_9OperationIPNS_9StatementEEE W
_ZN4Sass19PlaceholderSelector7performEPNS_9OperationIvEE W
_ZN4Sass19PlaceholderSelectorC1ENS_10SourceSpanENSt7__cxx1112basic_stringIcSt11char_traitsIcESaIcEEE T
_ZN4Sass19PlaceholderSelectorC1EPKS0_ T
_ZN4Sass19PlaceholderSelectorC2ENS_10SourceSpanENSt7__cxx1112basic_stringIcSt11char_traitsIcESaIcEEE T
_ZN4Sass19PlaceholderSelectorC2EPKS0_ T
_ZN4Sass19PlaceholderSelectorD0Ev W
_ZN4Sass19PlaceholderSelectorD1Ev W
_ZN4Sass19PlaceholderSelectorD2Ev W
_ZN4Sass19register_c_functionERNS_7ContextEPNS_11EnvironmentINS_10SharedImplINS_8AST_NodeEEEEEP13Sass_Function T
_ZN4Sass19Remove_Placeholders19remove_placeholdersEPNS_12SelectorListE T
_ZN4Sass19Remove_Placeholders19remove_placeholdersEPNS_14SimpleSelectorE T
_ZN4Sass19Remove_Placeholders19remove_placeholdersEPNS_15ComplexSelectorE T
_ZN4Sass19Remove_Placeholders19remove_placeholdersEPNS_16CompoundSelectorE T
_ZN4Sass19Remove_PlaceholdersC1Ev T
_ZN4Sass19Remove_PlaceholdersC2Ev T
_ZN4Sass19Remove_PlaceholdersclEPNS_12CssMediaRuleE T
_ZN4Sass19Remove_PlaceholdersclEPNS_12SupportsRuleE T
_ZN4Sass19Remove_PlaceholdersclEPNS_5BlockE T
_ZN4Sass19Remove_PlaceholdersclEPNS_6AtRuleE T
_ZN4Sass19Remove_PlaceholdersclEPNS_9StyleRuleE T
_ZN4Sass19selectorPseudoNamedENS_10SharedImplINS_16CompoundSelectorEEENSt7__cxx1112basic_stringIcSt11char_traitsIcESaIcEEE T
_ZN4Sass19SupportsDeclaration7performEPNS_9OperationINSt7__cxx1112basic_stringIcSt11char_traitsIcESaIcEEEEE W
_ZN4Sass19SupportsDeclaration7performEPNS_9OperationIP10Sass_ValueEE W
_ZN4Sass19SupportsDeclaration7performEPNS_9OperationIPNS_10ExpressionEEE W
_ZN4Sass19SupportsDeclaration7performEPNS_9OperationIPNS_17SupportsConditionEEE W
_ZN4Sass19SupportsDeclaration7performEPNS_9OperationIPNS_5ValueEEE W
_ZN4Sass19SupportsDeclaration7performEPNS_9OperationIPNS_8AST_NodeEEE W
_ZN4Sass19SupportsDeclaration7performEPNS_9OperationIPNS_8SelectorEEE W
_ZN4Sass19SupportsDeclaration7performEPNS_9OperationIPNS_9StatementEEE W
_ZN4Sass19SupportsDeclaration7performEPNS_9OperationIvEE W
_ZN4Sass19SupportsDeclarationC1ENS_10SourceSpanENS_10SharedImplINS_10ExpressionEEES4_ T
_ZN4Sass19SupportsDeclarationC1EPKS0_ T
_ZN4Sass19SupportsDeclarationC2ENS_10SourceSpanENS_10SharedImplINS_10ExpressionEEES4_ T
_ZN4Sass19SupportsDeclarationC2EPKS0_ T
_ZN4Sass19SupportsDeclarationD0Ev W
_ZN4Sass19SupportsDeclarationD1Ev W
_ZN4Sass19SupportsDeclarationD2Ev W
_ZN4Sass20make_native_functionEPKcPFPNS_8PreValueERNS_11EnvironmentINS_10SharedImplINS_8AST_NodeEEEEES9_RNS_7ContextES1_NS_10SourceSpanERSt6vectorINS_9BacktraceESaISE_EESD_INS5_INS_12SelectorListEEESaISJ_EESL_ESB_ T
_ZN4Sass20register_c_functionsERNS_7ContextEPNS_11EnvironmentINS_10SharedImplINS_8AST_NodeEEEEEPP13Sass_Function T
_ZN4Sass21detect_best_quotemarkEPKcc T
_ZN4Sass21mergeFinalCombinatorsERSt6vectorINS_10SharedImplINS_17SelectorComponentEEESaIS3_EES6_RS0_IS0_IS5_SaIS5_EESaIS8_EE T
_ZN4Sass21simpleIsSuperselectorERKNS_10SharedImplINS_14SimpleSelectorEEES4_ T
_ZN4Sass22ast_node_to_sass_valueEPKNS_10ExpressionE T
_ZN4Sass22complexIsSuperselectorERKSt6vectorINS_10SharedImplINS_17SelectorComponentEEESaIS3_EES7_ T
_ZN4Sass22Media_Query_Expression7performEPNS_9OperationINSt7__cxx1112basic_stringIcSt11char_traitsIcESaIcEEEEE W
_ZN4Sass22Media_Query_Expression7performEPNS_9OperationIP10Sass_ValueEE W
_ZN4Sass22Media_Query_Expression7performEPNS_9OperationIPNS_10ExpressionEEE W
_ZN4Sass22Media_Query_Expression7performEPNS_9OperationIPNS_17SupportsConditionEEE W
_ZN4Sass22Media_Query_Expression7performEPNS_9OperationIPNS_5ValueEEE W
_ZN4Sass22Media_Query_Expression7performEPNS_9OperationIPNS_8AST_NodeEEE W
_ZN4Sass22Media_Query_Expression7performEPNS_9OperationIPNS_8SelectorEEE W
_ZN4Sass22Media_Query_Expression7performEPNS_9OperationIPNS_9StatementEEE W
_ZN4Sass22Media_Query_Expression7performEPNS_9OperationIvEE W
_ZN4Sass22Media_Query_ExpressionC1ENS_10SourceSpanENS_10SharedImplINS_10ExpressionEEES4_b T
_ZN4Sass22Media_Query_ExpressionC1EPKS0_ T
_ZN4Sass22Media_Query_ExpressionC2ENS_10SourceSpanENS_10SharedImplINS_10ExpressionEEES4_b T
_ZN4Sass22Media_Query_ExpressionC2EPKS0_ T
_ZN4Sass22Media_Query_ExpressionD0Ev W
_ZN4Sass22Media_Query_ExpressionD1Ev W
_ZN4Sass22Media_Query_ExpressionD2Ev W
_ZN4Sass22register_overload_stubERNS_7ContextENSt7__cxx1112basic_stringIcSt11char_traitsIcESaIcEEEPNS_11EnvironmentINS_10SharedImplINS_8AST_NodeEEEEE T
_ZN4Sass22sass_value_to_ast_nodeEPK10Sass_Value T
_ZN4Sass22Supports_Interpolation7performEPNS_9OperationINSt7__cxx1112basic_stringIcSt11char_traitsIcESaIcEEEEE W
_ZN4Sass22Supports_Interpolation7performEPNS_9OperationIP10Sass_ValueEE W
_ZN4Sass22Supports_Interpolation7performEPNS_9OperationIPNS_10ExpressionEEE W
_ZN4Sass22Supports_Interpolation7performEPNS_9OperationIPNS_17SupportsConditionEEE W
_ZN4Sass22Supports_Interpolation7performEPNS_9OperationIPNS_5ValueEEE W
_ZN4Sass22Supports_Interpolation7performEPNS_9OperationIPNS_8AST_NodeEEE W
_ZN4Sass22Supports_Interpolation7performEPNS_9OperationIPNS_8SelectorEEE W
_ZN4Sass22Supports_Interpolation7performEPNS_9OperationIPNS_9StatementEEE W
_ZN4Sass22Supports_Interpolation7performEPNS_9OperationIvEE W
_ZN4Sass22Supports_InterpolationC1ENS_10SourceSpanENS_10SharedImplINS_10ExpressionEEE T
_ZN4Sass22Supports_InterpolationC1EPKS0_ T
_ZN4Sass22Supports_InterpolationC2ENS_10SourceSpanENS_10SharedImplINS_10ExpressionEEE T
_ZN4Sass22Supports_InterpolationC2EPKS0_ T
_ZN4Sass22Supports_InterpolationD0Ev W
_ZN4Sass22Supports_InterpolationD1Ev W
_ZN4Sass22Supports_InterpolationD2Ev W
_ZN4Sass23compoundIsSuperselectorERKNS_10SharedImplINS_16CompoundSelectorEEES4_N9__gnu_cxx17__normal_iteratorIPKNS0_INS_17SelectorComponentEEESt6vectorIS8_SaIS8_EEEESE_ T
_ZN4Sass23compoundIsSuperselectorERKNS_10SharedImplINS_16CompoundSelectorEEES4_RKSt6vectorINS0_INS_17SelectorComponentEEESaIS7_EE T
_ZN4Sass23mergeInitialCombinatorsERSt6vectorINS_10SharedImplINS_17SelectorComponentEEESaIS3_EES6_S6_ T
_ZN4Sass23size_conversion_factorsE R
_ZN4Sass23time_conversion_factorsE R
_ZN4Sass24angle_conversion_factorsE R
_ZN4Sass24cmpChunkForEmptySequenceERKSt6vectorIS0_INS_10SharedImplINS_17SelectorComponentEEESaIS3_EESaIS5_EERKS5_ T
_ZN4Sass25comment_to_compact_stringERKNSt7__cxx1112basic_stringIcSt11char_traitsIcESaIcEEE T
_ZN4Sass27idIsSuperselectorOfCompoundERKNS_10SharedImplINS_10IDSelectorEEERKNS0_INS_16CompoundSelectorEEE T
_ZN4Sass27register_built_in_functionsERNS_7ContextEPNS_11EnvironmentINS_10SharedImplINS_8AST_NodeEEEEE T
_ZN4Sass28complexIsParentSuperselectorERKSt6vectorINS_10SharedImplINS_17SelectorComponentEEESaIS3_EES7_ T
_ZN4Sass28frequency_conversion_factorsE R
_ZN4Sass29listHasSuperslectorForComplexESt6vectorINS_10SharedImplINS_15ComplexSelectorEEESaIS3_EES3_ T
_ZN4Sass29pseudoIsSuperselectorOfPseudoERKNS_10SharedImplINS_14PseudoSelectorEEES4_RKNS0_INS_15ComplexSelectorEEE T
_ZN4Sass29resolution_conversion_factorsE R
_ZN4Sass29selectorPseudoIsSuperselectorERKNS_10SharedImplINS_14PseudoSelectorEEERKNS0_INS_16CompoundSelectorEEEN9__gnu_cxx17__normal_iteratorIPKNS0_INS_17SelectorComponentEEESt6vectorISC_SaISC_EEEESI_ T
_ZN4Sass29typeIsSuperselectorOfCompoundERKNS_10SharedImplINS_12TypeSelectorEEERKNS0_INS_16CompoundSelectorEEE T
_ZN4Sass2If11has_contentEv T
_ZN4Sass2If7performEPNS_9OperationINSt7__cxx1112basic_stringIcSt11char_traitsIcESaIcEEEEE W
_ZN4Sass2If7performEPNS_9OperationIP10Sass_ValueEE W
_ZN4Sass2If7performEPNS_9OperationIPNS_10ExpressionEEE W
_ZN4Sass2If7performEPNS_9OperationIPNS_17SupportsConditionEEE W
_ZN4Sass2If7performEPNS_9OperationIPNS_5ValueEEE W
_ZN4Sass2If7performEPNS_9OperationIPNS_8AST_NodeEEE W
_ZN4Sass2If7performEPNS_9OperationIPNS_8SelectorEEE W
_ZN4Sass2If7performEPNS_9OperationIPNS_9StatementEEE W
_ZN4Sass2If7performEPNS_9OperationIvEE W
_ZN4Sass2IfC1ENS_10SourceSpanENS_10SharedImplINS_10ExpressionEEENS2_INS_5BlockEEES6_ T
_ZN4Sass2IfC1EPKS0_ T
_ZN4Sass2IfC2ENS_10SourceSpanENS_10SharedImplINS_10ExpressionEEENS2_INS_5BlockEEES6_ T
_ZN4Sass2IfC2EPKS0_ T
_ZN4Sass2IfD0Ev W
_ZN4Sass2IfD1Ev W
_ZN4Sass2IfD2Ev W
_ZN4Sass30cmpChunkForParentSuperselectorERKSt6vectorIS0_INS_10SharedImplINS_17SelectorComponentEEESaIS3_EESaIS5_EERKS5_ T
_ZN4Sass31simpleIsSuperselectorOfCompoundERKNS_10SharedImplINS_14SimpleSelectorEEERKNS0_INS_16CompoundSelectorEEE T
_ZN4Sass34pseudoNotIsSuperselectorOfCompoundERKNS_10SharedImplINS_14PseudoSelectorEEERKNS0_INS_16CompoundSelectorEEERKNS0_INS_15ComplexSelectorEEE T
_ZN4Sass3lcsINS_10SharedImplINS_17SelectorComponentEEEEESt6vectorIT_SaIS5_EERKS7_S9_PFbRKS5_SB_RS5_E W
_ZN4Sass3lcsISt6vectorINS_10SharedImplINS_17SelectorComponentEEESaIS4_EEEES1_IT_SaIS7_EERKS9_SB_PFbRKS7_SD_RS7_E W
_ZN4Sass3Map20adjust_after_pushingESt4pairINS_10SharedImplINS_10ExpressionEEES4_E W
_ZN4Sass3Map7performEPNS_9OperationINSt7__cxx1112basic_stringIcSt11char_traitsIcESaIcEEEEE W
_ZN4Sass3Map7performEPNS_9OperationIP10Sass_ValueEE W
_ZN4Sass3Map7performEPNS_9OperationIPNS_10ExpressionEEE W
_ZN4Sass3Map7performEPNS_9OperationIPNS_17SupportsConditionEEE W
_ZN4Sass3Map7performEPNS_9OperationIPNS_5ValueEEE W
_ZN4Sass3Map7performEPNS_9OperationIPNS_8AST_NodeEEE W
_ZN4Sass3Map7performEPNS_9OperationIPNS_8SelectorEEE W
_ZN4Sass3Map7performEPNS_9OperationIPNS_9StatementEEE W
_ZN4Sass3Map7performEPNS_9OperationIvEE W
_ZN4Sass3Map7to_listERNS_10SourceSpanE T
_ZN4Sass3MapC1ENS_10SourceSpanEm T
_ZN4Sass3MapC1EPKS0_ T
_ZN4Sass3MapC2ENS_10SourceSpanEm T
_ZN4Sass3MapC2EPKS0_ T
_ZN4Sass3MapD0Ev W
_ZN4Sass3MapD1Ev W
_ZN4Sass3MapD2Ev W
_ZN4Sass4bindENSt7__cxx1112basic_stringIcSt11char_traitsIcESaIcEEES5_NS_10SharedImplINS_10ParametersEEENS6_INS_9ArgumentsEEEPNS_11EnvironmentINS6_INS_8AST_NodeEEEEEPNS_4EvalERSt6vectorINS_9BacktraceESaISJ_EE T
_ZN4Sass4CastINS_10AtRootRuleEEEPT_PNS_8AST_NodeE W
_ZN4Sass4CastINS_10Color_HSLAEEEPKT_PKNS_8AST_NodeE W
_ZN4Sass4CastINS_10Color_RGBAEEEPKT_PKNS_8AST_NodeE W
_ZN4Sass4CastINS_10DefinitionEEEPT_PNS_8AST_NodeE W
_ZN4Sass4CastINS_10ExpressionEEEPKT_PKNS_8AST_NodeE T
_ZN4Sass4CastINS_10ExpressionEEEPT_PNS_8AST_NodeE T
_ZN4Sass4CastINS_10IDSelectorEEEPT_PNS_8AST_NodeE W
_ZN4Sass4CastINS_10Mixin_CallEEEPT_PNS_8AST_NodeE W
_ZN4Sass4CastINS_11DeclarationEEEPT_PNS_8AST_NodeE W
_ZN4Sass4CastINS_12CssMediaRuleEEEPT_PNS_8AST_NodeE W
_ZN4Sass4CastINS_12Custom_ErrorEEEPKT_PKNS_8AST_NodeE W
_ZN4Sass4CastINS_12SelectorListEEEPKT_PKNS_8AST_NodeE W
_ZN4Sass4CastINS_12SelectorListEEEPT_PNS_8AST_NodeE W
_ZN4Sass4CastINS_12SupportsRuleEEEPT_PNS_8AST_NodeE W
_ZN4Sass4CastINS_12TypeSelectorEEEPT_PNS_8AST_NodeE W
_ZN4Sass4CastINS_13At_Root_QueryEEEPT_PNS_8AST_NodeE W
_ZN4Sass4CastINS_13String_QuotedEEEPKT_PKNS_8AST_NodeE W
_ZN4Sass4CastINS_13String_QuotedEEEPT_PNS_8AST_NodeE W
_ZN4Sass4CastINS_13String_SchemaEEEPKT_PKNS_8AST_NodeE W
_ZN4Sass4CastINS_13String_SchemaEEEPT_PNS_8AST_NodeE W
_ZN4Sass4CastINS_14Custom_WarningEEEPKT_PKNS_8AST_NodeE W
_ZN4Sass4CastINS_14PseudoSelectorEEEPT_PNS_8AST_NodeE W
_ZN4Sass4CastINS_14SimpleSelectorEEEPKT_PKNS_8AST_NodeE T
_ZN4Sass4CastINS_14SimpleSelectorEEEPT_PNS_8AST_NodeE T
_ZN4Sass4CastINS_15ComplexSelectorEEEPKT_PKNS_8AST_NodeE W
_ZN4Sass4CastINS_15ParentStatementEEEPKT_PKNS_8AST_NodeE T
_ZN4Sass4CastINS_15ParentStatementEEEPT_PNS_8AST_NodeE T
_ZN4Sass4CastINS_15String_ConstantEEEPKT_PKNS_8AST_NodeE T
_ZN4Sass4CastINS_15String_ConstantEEEPT_PNS_8AST_NodeE T
_ZN4Sass4CastINS_16CompoundSelectorEEEPKT_PKNS_8AST_NodeE W
_ZN4Sass4CastINS_16CompoundSelectorEEEPT_PNS_8AST_NodeE W
_ZN4Sass4CastINS_16SupportsNegationEEEPT_PNS_8AST_NodeE W
_ZN4Sass4CastINS_17Binary_ExpressionEEEPKT_PKNS_8AST_NodeE W
_ZN4Sass4CastINS_17Binary_ExpressionEEEPT_PNS_8AST_NodeE W
_ZN4Sass4CastINS_17SelectorComponentEEEPKT_PKNS_8AST_NodeE T
_ZN4Sass4CastINS_17SelectorComponentEEEPT_PNS_8AST_NodeE T
_ZN4Sass4CastINS_17SupportsConditionEEEPKT_PKNS_8AST_NodeE T
_ZN4Sass4CastINS_17SupportsConditionEEEPT_PNS_8AST_NodeE T
_ZN4Sass4CastINS_17SupportsOperationEEEPT_PNS_8AST_NodeE W
_ZN4Sass4CastINS_18SelectorCombinatorEEEPT_PNS_8AST_NodeE W
_ZN4Sass4CastINS_2IfEEEPT_PNS_8AST_NodeE W
_ZN4Sass4CastINS_3MapEEEPKT_PKNS_8AST_NodeE W
_ZN4Sass4CastINS_3MapEEEPT_PNS_8AST_NodeE W
_ZN4Sass4CastINS_4ListEEEPKT_PKNS_8AST_NodeE T
_ZN4Sass4CastINS_4ListEEEPT_PNS_8AST_NodeE T
_ZN4Sass4CastINS_4NullEEEPKT_PKNS_8AST_NodeE W
_ZN4Sass4CastINS_4NullEEEPT_PNS_8AST_NodeE W
_ZN4Sass4CastINS_5BlockEEEPT_PNS_8AST_NodeE W
_ZN4Sass4CastINS_5ColorEEEPKT_PKNS_8AST_NodeE T
_ZN4Sass4CastINS_5ColorEEEPT_PNS_8AST_NodeE T
_ZN4Sass4CastINS_5TraceEEEPT_PNS_8AST_NodeE W
_ZN4Sass4CastINS_5ValueEEEPKT_PKNS_8AST_NodeE T
_ZN4Sass4CastINS_5ValueEEEPT_PNS_8AST_NodeE T
_ZN4Sass4CastINS_6AtRuleEEEPT_PNS_8AST_NodeE W
_ZN4Sass4CastINS_6BubbleEEEPT_PNS_8AST_NodeE W
_ZN4Sass4CastINS_6ImportEEEPT_PNS_8AST_NodeE W
_ZN4Sass4CastINS_6NumberEEEPKT_PKNS_8AST_NodeE W
_ZN4Sass4CastINS_6NumberEEEPT_PNS_8AST_NodeE W
_ZN4Sass4CastINS_6ReturnEEEPT_PNS_8AST_NodeE W
_ZN4Sass4CastINS_6StringEEEPKT_PKNS_8AST_NodeE T
_ZN4Sass4CastINS_6StringEEEPT_PNS_8AST_NodeE T
_ZN4Sass4CastINS_7BooleanEEEPKT_PKNS_8AST_NodeE W
_ZN4Sass4CastINS_7CommentEEEPT_PNS_8AST_NodeE W
_ZN4Sass4CastINS_7ForRuleEEEPT_PNS_8AST_NodeE W
_ZN4Sass4CastINS_8ArgumentEEEPT_PNS_8AST_NodeE W
_ZN4Sass4CastINS_8AST_NodeEEEPKT_PKS1_ T
_ZN4Sass4CastINS_8AST_NodeEEEPT_PS1_ T
_ZN4Sass4CastINS_8EachRuleEEEPT_PNS_8AST_NodeE W
_ZN4Sass4CastINS_8FunctionEEEPKT_PKNS_8AST_NodeE W
_ZN4Sass4CastINS_8PreValueEEEPKT_PKNS_8AST_NodeE T
_ZN4Sass4CastINS_8PreValueEEEPT_PNS_8AST_NodeE T
_ZN4Sass4CastINS_8SelectorEEEPKT_PKNS_8AST_NodeE T
_ZN4Sass4CastINS_8SelectorEEEPT_PNS_8AST_NodeE T
_ZN4Sass4CastINS_8VariableEEEPT_PNS_8AST_NodeE W
_ZN4Sass4CastINS_9ArgumentsEEEPT_PNS_8AST_NodeE W
_ZN4Sass4CastINS_9StatementEEEPKT_PKNS_8AST_NodeE T
_ZN4Sass4CastINS_9StatementEEEPT_PNS_8AST_NodeE T
_ZN4Sass4CastINS_9StyleRuleEEEPT_PNS_8AST_NodeE W
_ZN4Sass4CastINS_9WhileRuleEEEPT_PNS_8AST_NodeE W
_ZN4Sass4Eval11environmentEv T
_ZN4Sass4Eval12callee_stackEv T
_ZN4Sass4Eval13interpolationERNS_7ContextERNSt7__cxx1112basic_stringIcSt11char_traitsIcESaIcEEENS_10SharedImplINS_10ExpressionEEEbb T
_ZN4Sass4Eval3cwdB5cxx11Ev T
_ZN4Sass4Eval7optionsEv T
_ZN4Sass4Eval8compilerEv T
_ZN4Sass4Eval9env_stackEv T
_ZN4Sass4EvalC1ERNS_6ExpandE T
_ZN4Sass4EvalC2ERNS_6ExpandE T
_ZN4Sass4EvalclEPNS_10AssignmentE T
_ZN4Sass4EvalclEPNS_10Color_HSLAE T
_ZN4Sass4EvalclEPNS_10Color_RGBAE T
_ZN4Sass4EvalclEPNS_10IDSelectorE W
_ZN4Sass4EvalclEPNS_11Media_QueryE T
_ZN4Sass4EvalclEPNS_11WarningRuleE T
_ZN4Sass4EvalclEPNS_12SelectorListE T
_ZN4Sass4EvalclEPNS_12TypeSelectorE W
_ZN4Sass4EvalclEPNS_13At_Root_QueryE T
_ZN4Sass4EvalclEPNS_13ClassSelectorE W
_ZN4Sass4EvalclEPNS_13Function_CallE T
_ZN4Sass4EvalclEPNS_13String_QuotedE T
_ZN4Sass4EvalclEPNS_13String_SchemaE T
_ZN4Sass4EvalclEPNS_14PseudoSelectorE T
_ZN4Sass4EvalclEPNS_14SimpleSelectorE T
_ZN4Sass4EvalclEPNS_15ComplexSelectorE T
_ZN4Sass4EvalclEPNS_15Selector_SchemaE T
_ZN4Sass4EvalclEPNS_15String_ConstantE T
_ZN4Sass4EvalclEPNS_16CompoundSelectorE T
_ZN4Sass4EvalclEPNS_16Parent_ReferenceE T
_ZN4Sass4EvalclEPNS_16SupportsNegationE T
_ZN4Sass4EvalclEPNS_16Unary_ExpressionE T
_ZN4Sass4EvalclEPNS_17AttributeSelectorE W
_ZN4Sass4EvalclEPNS_17Binary_ExpressionE T
_ZN4Sass4EvalclEPNS_17SelectorComponentE T
_ZN4Sass4EvalclEPNS_17SupportsOperationE T
_ZN4Sass4EvalclEPNS_19PlaceholderSelectorE W
_ZN4Sass4EvalclEPNS_19SupportsDeclarationE T
_ZN4Sass4EvalclEPNS_22Media_Query_ExpressionE T
_ZN4Sass4EvalclEPNS_22Supports_InterpolationE T
_ZN4Sass4EvalclEPNS_2IfE T
_ZN4Sass4EvalclEPNS_3MapE T
_ZN4Sass4EvalclEPNS_4ListE T
_ZN4Sass4EvalclEPNS_4NullE T
_ZN4Sass4EvalclEPNS_5BlockE T
_ZN4Sass4EvalclEPNS_6NumberE T
_ZN4Sass4EvalclEPNS_6ReturnE T
_ZN4Sass4EvalclEPNS_7BooleanE T
_ZN4Sass4EvalclEPNS_7CommentE T
_ZN4Sass4EvalclEPNS_7ForRuleE T
_ZN4Sass4EvalclEPNS_8ArgumentE T
_ZN4Sass4EvalclEPNS_8EachRuleE T
_ZN4Sass4EvalclEPNS_8VariableE T
_ZN4Sass4EvalclEPNS_9ArgumentsE T
_ZN4Sass4EvalclEPNS_9DebugRuleE T
_ZN4Sass4EvalclEPNS_9ErrorRuleE T
_ZN4Sass4EvalclEPNS_9WhileRuleE T
_ZN4Sass4EvalD1Ev T
_ZN4Sass4EvalD2Ev T
_ZN4Sass4File10find_filesERKNSt7__cxx1112basic_stringIcSt11char_traitsIcESaIcEEEP13Sass_Compiler T
_ZN4Sass4File10find_filesERKNSt7__cxx1112basic_stringIcSt11char_traitsIcESaIcEEESt6vectorIS6_SaIS6_EE T
_ZN4Sass4File10join_pathsENSt7__cxx1112basic_stringIcSt11char_traitsIcESaIcEEES6_ T
_ZN4Sass4File11file_existsERKNSt7__cxx1112basic_stringIcSt11char_traitsIcESaIcEEE T
_ZN4Sass4File12find_includeERKNSt7__cxx1112basic_stringIcSt11char_traitsIcESaIcEEESt6vectorIS6_SaIS6_EE T
_ZN4Sass4File15split_path_listB5cxx11EPKc T
_ZN4Sass4File16is_absolute_pathERKNSt7__cxx1112basic_stringIcSt11char_traitsIcESaIcEEE T
_ZN4Sass4File16path_for_consoleERKNSt7__cxx1112basic_stringIcSt11char_traitsIcESaIcEEES8_S8_ T
_ZN4Sass4File16resolve_includesERKNSt7__cxx1112basic_stringIcSt11char_traitsIcESaIcEEES8_RKSt6vectorIS6_SaIS6_EE T
_ZN4Sass4File19make_canonical_pathENSt7__cxx1112basic_stringIcSt11char_traitsIcESaIcEEE T
_ZN4Sass4File7abs2relERKNSt7__cxx1112basic_stringIcSt11char_traitsIcESaIcEEES8_S8_ T
_ZN4Sass4File7get_cwdB5cxx11Ev T
_ZN4Sass4File7rel2absERKNSt7__cxx1112basic_stringIcSt11char_traitsIcESaIcEEES8_S8_ T
_ZN4Sass4File8dir_nameERKNSt7__cxx1112basic_stringIcSt11char_traitsIcESaIcEEE T
_ZN4Sass4File9base_nameERKNSt7__cxx1112basic_stringIcSt11char_traitsIcESaIcEEE T
_ZN4Sass4File9find_fileERKNSt7__cxx1112basic_stringIcSt11char_traitsIcESaIcEEESt6vectorIS6_SaIS6_EE T
_ZN4Sass4File9read_fileERKNSt7__cxx1112basic_stringIcSt11char_traitsIcESaIcEEE T
_ZN4Sass4List11set_delayedEb T
_ZN4Sass4List14value_at_indexEm T
_ZN4Sass4List20adjust_after_pushingENS_10SharedImplINS_10ExpressionEEE W
_ZN4Sass4List7performEPNS_9OperationINSt7__cxx1112basic_stringIcSt11char_traitsIcESaIcEEEEE W
_ZN4Sass4List7performEPNS_9OperationIP10Sass_ValueEE W
_ZN4Sass4List7performEPNS_9OperationIPNS_10ExpressionEEE W
_ZN4Sass4List7performEPNS_9OperationIPNS_17SupportsConditionEEE W
_ZN4Sass4List7performEPNS_9OperationIPNS_5ValueEEE W
_ZN4Sass4List7performEPNS_9OperationIPNS_8AST_NodeEEE W
_ZN4Sass4List7performEPNS_9OperationIPNS_8SelectorEEE W
_ZN4Sass4List7performEPNS_9OperationIPNS_9StatementEEE W
_ZN4Sass4List7performEPNS_9OperationIvEE W
_ZN4Sass4ListC1ENS_10SourceSpanEm14Sass_Separatorbb T
_ZN4Sass4ListC1EPKS0_ T
_ZN4Sass4ListC2ENS_10SourceSpanEm14Sass_Separatorbb T
_ZN4Sass4ListC2EPKS0_ T
_ZN4Sass4ListD0Ev W
_ZN4Sass4ListD1Ev W
_ZN4Sass4ListD2Ev W
_ZN4Sass4Null7performEPNS_9OperationINSt7__cxx1112basic_stringIcSt11char_traitsIcESaIcEEEEE W
_ZN4Sass4Null7performEPNS_9OperationIP10Sass_ValueEE W
_ZN4Sass4Null7performEPNS_9OperationIPNS_10ExpressionEEE W
_ZN4Sass4Null7performEPNS_9OperationIPNS_17SupportsConditionEEE W
_ZN4Sass4Null7performEPNS_9OperationIPNS_5ValueEEE W
_ZN4Sass4Null7performEPNS_9OperationIPNS_8AST_NodeEEE W
_ZN4Sass4Null7performEPNS_9OperationIPNS_8SelectorEEE W
_ZN4Sass4Null7performEPNS_9OperationIPNS_9StatementEEE W
_ZN4Sass4Null7performEPNS_9OperationIvEE W
_ZN4Sass4Null8is_falseEv W
_ZN4Sass4NullC1ENS_10SourceSpanE T
_ZN4Sass4NullC1EPKS0_ T
_ZN4Sass4NullC2ENS_10SourceSpanE T
_ZN4Sass4NullC2EPKS0_ T
_ZN4Sass4NullcvbEv W
_ZN4Sass4NullD0Ev W
_ZN4Sass4NullD1Ev W
_ZN4Sass4NullD2Ev W
_ZN4Sass4Util11isPrintableENS_10SharedImplINS_5BlockEEE17Sass_Output_Style T
_ZN4Sass4Util11isPrintableEPNS_11DeclarationE17Sass_Output_Style T
_ZN4Sass4Util11isPrintableEPNS_12CssMediaRuleE17Sass_Output_Style T
_ZN4Sass4Util11isPrintableEPNS_12SupportsRuleE17Sass_Output_Style T
_ZN4Sass4Util11isPrintableEPNS_13String_QuotedE17Sass_Output_Style T
_ZN4Sass4Util11isPrintableEPNS_15String_ConstantE17Sass_Output_Style T
_ZN4Sass4Util11isPrintableEPNS_7CommentE17Sass_Output_Style T
_ZN4Sass4Util11isPrintableEPNS_9StyleRuleE17Sass_Output_Style T
_ZN4Sass4Util13ascii_isspaceEh W
_ZN4Sass4Util13equalsLiteralEPKcRKNSt7__cxx1112basic_stringIcSt11char_traitsIcESaIcEEE T
_ZN4Sass4Util17ascii_str_tolowerEPNSt7__cxx1112basic_stringIcSt11char_traitsIcESaIcEEE T
_ZN4Sass4Util17ascii_str_toupperEPNSt7__cxx1112basic_stringIcSt11char_traitsIcESaIcEEE T
_ZN4Sass4Util18normalize_decimalsERKNSt7__cxx1112basic_stringIcSt11char_traitsIcESaIcEEE T
_ZN4Sass4Util18normalize_newlinesERKNSt7__cxx1112basic_stringIcSt11char_traitsIcESaIcEEE T
_ZN4Sass4Util19closing_bracket_forEc T
_ZN4Sass4Util19opening_bracket_forEc T
_ZN4Sass4Util21normalize_underscoresERKNSt7__cxx1112basic_stringIcSt11char_traitsIcESaIcEEE T
_ZN4Sass4Util5rtrimENSt7__cxx1112basic_stringIcSt11char_traitsIcESaIcEEE T
_ZN4Sass4Util8unvendorERKNSt7__cxx1112basic_stringIcSt11char_traitsIcESaIcEEE T
_ZN4Sass4warnENSt7__cxx1112basic_stringIcSt11char_traitsIcESaIcEEENS_10SourceSpanE T
_ZN4Sass4warnENSt7__cxx1112basic_stringIcSt11char_traitsIcESaIcEEENS_10SourceSpanEPNS_9BacktraceE T
_ZN4Sass5AST2CclEPNS_10Color_HSLAE T
_ZN4Sass5AST2CclEPNS_10Color_RGBAE T
_ZN4Sass5AST2CclEPNS_12Custom_ErrorE T
_ZN4Sass5AST2CclEPNS_13String_QuotedE T
_ZN4Sass5AST2CclEPNS_14Custom_WarningE T
_ZN4Sass5AST2CclEPNS_15String_ConstantE T
_ZN4Sass5AST2CclEPNS_3MapE T
_ZN4Sass5AST2CclEPNS_4ListE T
_ZN4Sass5AST2CclEPNS_4NullE T
_ZN4Sass5AST2CclEPNS_6NumberE T
_ZN4Sass5AST2CclEPNS_7BooleanE T
_ZN4Sass5AST2CclEPNS_8ArgumentE T
_ZN4Sass5AST2CclEPNS_9ArgumentsE T
_ZN4Sass5Block11has_contentEv T
_ZN4Sass5Block20adjust_after_pushingENS_10SharedImplINS_9StatementEEE W
_ZN4Sass5Block7performEPNS_9OperationINSt7__cxx1112basic_stringIcSt11char_traitsIcESaIcEEEEE W
_ZN4Sass5Block7performEPNS_9OperationIP10Sass_ValueEE W
_ZN4Sass5Block7performEPNS_9OperationIPNS_10ExpressionEEE W
_ZN4Sass5Block7performEPNS_9OperationIPNS_17SupportsConditionEEE W
_ZN4Sass5Block7performEPNS_9OperationIPNS_5ValueEEE W
_ZN4Sass5Block7performEPNS_9OperationIPNS_8AST_NodeEEE W
_ZN4Sass5Block7performEPNS_9OperationIPNS_8SelectorEEE W
_ZN4Sass5Block7performEPNS_9OperationIPNS_9StatementEEE W
_ZN4Sass5Block7performEPNS_9OperationIvEE W
_ZN4Sass5BlockC1ENS_10SourceSpanEmb T
_ZN4Sass5BlockC1EPKS0_ T
_ZN4Sass5BlockC2ENS_10SourceSpanEmb T
_ZN4Sass5BlockC2EPKS0_ T
_ZN4Sass5BlockD0Ev W
_ZN4Sass5BlockD1Ev W
_ZN4Sass5BlockD2Ev W
_ZN4Sass5c2astEP10Sass_ValueSt6vectorINS_9BacktraceESaIS3_EENS_10SourceSpanE T
_ZN4Sass5ColorC1ENS_10SourceSpanEdNSt7__cxx1112basic_stringIcSt11char_traitsIcESaIcEEE T
_ZN4Sass5ColorC1EPKS0_ T
_ZN4Sass5ColorC2ENS_10SourceSpanEdNSt7__cxx1112basic_stringIcSt11char_traitsIcESaIcEEE T
_ZN4Sass5ColorC2EPKS0_ T
_ZN4Sass5errorENSt7__cxx1112basic_stringIcSt11char_traitsIcESaIcEEENS_10SourceSpanERSt6vectorINS_9BacktraceESaIS8_EE T
_ZN4Sass5errorEPNS_8AST_NodeESt6vectorINS_9BacktraceESaIS3_EENSt7__cxx1112basic_stringIcSt11char_traitsIcESaIcEEE T
_ZN4Sass5flushERNSt7__cxx1112basic_stringIcSt11char_traitsIcESaIcEEERNS_9converterE T
_ZN4Sass5quoteERKNSt7__cxx1112basic_stringIcSt11char_traitsIcESaIcEEEc T
_ZN4Sass5roundEdm T
_ZN4Sass5rtrimERKNSt7__cxx1112basic_stringIcSt11char_traitsIcESaIcEEE T
_ZN4Sass5Trace7performEPNS_9OperationINSt7__cxx1112basic_stringIcSt11char_traitsIcESaIcEEEEE W
_ZN4Sass5Trace7performEPNS_9OperationIP10Sass_ValueEE W
_ZN4Sass5Trace7performEPNS_9OperationIPNS_10ExpressionEEE W
_ZN4Sass5Trace7performEPNS_9OperationIPNS_17SupportsConditionEEE W
_ZN4Sass5Trace7performEPNS_9OperationIPNS_5ValueEEE W
_ZN4Sass5Trace7performEPNS_9OperationIPNS_8AST_NodeEEE W
_ZN4Sass5Trace7performEPNS_9OperationIPNS_8SelectorEEE W
_ZN4Sass5Trace7performEPNS_9OperationIPNS_9StatementEEE W
_ZN4Sass5Trace7performEPNS_9OperationIvEE W
_ZN4Sass5TraceC1ENS_10SourceSpanENSt7__cxx1112basic_stringIcSt11char_traitsIcESaIcEEENS_10SharedImplINS_5BlockEEEc T
_ZN4Sass5TraceC1EPKS0_ T
_ZN4Sass5TraceC2ENS_10SourceSpanENSt7__cxx1112basic_stringIcSt11char_traitsIcESaIcEEENS_10SharedImplINS_5BlockEEEc T
_ZN4Sass5TraceC2EPKS0_ T
_ZN4Sass5TraceD0Ev W
_ZN4Sass5TraceD1Ev W
_ZN4Sass5TraceD2Ev W
_ZN4Sass5Units6reduceEv T
_ZN4Sass5Units9normalizeEv T
_ZN4Sass5UTF_815normalize_indexEim T
_ZN4Sass5UTF_816code_point_countERKNSt7__cxx1112basic_stringIcSt11char_traitsIcESaIcEEE T
_ZN4Sass5UTF_816code_point_countERKNSt7__cxx1112basic_stringIcSt11char_traitsIcESaIcEEEmm T
_ZN4Sass5UTF_818offset_at_positionERKNSt7__cxx1112basic_stringIcSt11char_traitsIcESaIcEEEm T
_ZN4Sass5UTF_825code_point_size_at_offsetERKNSt7__cxx1112basic_stringIcSt11char_traitsIcESaIcEEEm T
_ZN4Sass5ValueC1ENS_10SourceSpanEbbbNS_10Expression4TypeE T
_ZN4Sass5ValueC1EPKS0_ T
_ZN4Sass5ValueC2ENS_10SourceSpanEbbbNS_10Expression4TypeE T
_ZN4Sass5ValueC2EPKS0_ T
_ZN4Sass5weaveERKSt6vectorIS0_INS_10SharedImplINS_17SelectorComponentEEESaIS3_EESaIS5_EE T
_ZN4Sass6AtRule12is_keyframesEv T
_ZN4Sass6AtRule7bubblesEv T
_ZN4Sass6AtRule7performEPNS_9OperationINSt7__cxx1112basic_stringIcSt11char_traitsIcESaIcEEEEE W
_ZN4Sass6AtRule7performEPNS_9OperationIP10Sass_ValueEE W
_ZN4Sass6AtRule7performEPNS_9OperationIPNS_10ExpressionEEE W
_ZN4Sass6AtRule7performEPNS_9OperationIPNS_17SupportsConditionEEE W
_ZN4Sass6AtRule7performEPNS_9OperationIPNS_5ValueEEE W
_ZN4Sass6AtRule7performEPNS_9OperationIPNS_8AST_NodeEEE W
_ZN4Sass6AtRule7performEPNS_9OperationIPNS_8SelectorEEE W
_ZN4Sass6AtRule7performEPNS_9OperationIPNS_9StatementEEE W
_ZN4Sass6AtRule7performEPNS_9OperationIvEE W
_ZN4Sass6AtRule8is_mediaEv T
_ZN4Sass6AtRuleC1ENS_10SourceSpanENSt7__cxx1112basic_stringIcSt11char_traitsIcESaIcEEENS_10SharedImplINS_12SelectorListEEENS8_INS_5BlockEEENS8_INS_10ExpressionEEE T
_ZN4Sass6AtRuleC1EPKS0_ T
_ZN4Sass6AtRuleC2ENS_10SourceSpanENSt7__cxx1112basic_stringIcSt11char_traitsIcESaIcEEENS_10SharedImplINS_12SelectorListEEENS8_INS_5BlockEEENS8_INS_10ExpressionEEE T
_ZN4Sass6AtRuleC2EPKS0_ T
_ZN4Sass6AtRuleD0Ev W
_ZN4Sass6AtRuleD1Ev W
_ZN4Sass6AtRuleD2Ev W
_ZN4Sass6Bubble7bubblesEv T
_ZN4Sass6Bubble7performEPNS_9OperationINSt7__cxx1112basic_stringIcSt11char_traitsIcESaIcEEEEE W
_ZN4Sass6Bubble7performEPNS_9OperationIP10Sass_ValueEE W
_ZN4Sass6Bubble7performEPNS_9OperationIPNS_10ExpressionEEE W
_ZN4Sass6Bubble7performEPNS_9OperationIPNS_17SupportsConditionEEE W
_ZN4Sass6Bubble7performEPNS_9OperationIPNS_5ValueEEE W
_ZN4Sass6Bubble7performEPNS_9OperationIPNS_8AST_NodeEEE W
_ZN4Sass6Bubble7performEPNS_9OperationIPNS_8SelectorEEE W
_ZN4Sass6Bubble7performEPNS_9OperationIPNS_9StatementEEE W
_ZN4Sass6Bubble7performEPNS_9OperationIvEE W
_ZN4Sass6BubbleC1ENS_10SourceSpanENS_10SharedImplINS_9StatementEEES4_m T
_ZN4Sass6BubbleC1EPKS0_ T
_ZN4Sass6BubbleC2ENS_10SourceSpanENS_10SharedImplINS_9StatementEEES4_m T
_ZN4Sass6BubbleC2EPKS0_ T
_ZN4Sass6BubbleD0Ev W
_ZN4Sass6BubbleD1Ev W
_ZN4Sass6BubbleD2Ev W
_ZN4Sass6Colors10aquamarineE B 90
_ZN4Sass6Colors10bluevioletE B 90
_ZN4Sass6Colors10chartreuseE B 90
_ZN4Sass6Colors10darkorangeE B 90
_ZN4Sass6Colors10darkorchidE B 90
_ZN4Sass6Colors10darksalmonE B 90
_ZN4Sass6Colors10darkvioletE B 90
_ZN4Sass6Colors10dodgerblueE B 90
_ZN4Sass6Colors10ghostwhiteE B 90
_ZN4Sass6Colors10lightcoralE B 90
_ZN4Sass6Colors10lightgreenE B 90
_ZN4Sass6Colors10mediumblueE B 90
_ZN4Sass6Colors10papayawhipE B 90
_ZN4Sass6Colors10powderblueE B 90
_ZN4Sass6Colors10sandybrownE B 90
_ZN4Sass6Colors10whitesmokeE B 90
_ZN4Sass6Colors11darkmagentaE B 90
_ZN4Sass6Colors11deepskyblueE B 90
_ZN4Sass6Colors11floralwhiteE B 90
_ZN4Sass6Colors11forestgreenE B 90
_ZN4Sass6Colors11greenyellowE B 90
_ZN4Sass6Colors11lightsalmonE B 90
_ZN4Sass6Colors11lightyellowE B 90
_ZN4Sass6Colors11navajowhiteE B 90
_ZN4Sass6Colors11saddlebrownE B 90
_ZN4Sass6Colors11springgreenE B 90
_ZN4Sass6Colors11transparentE B 90
_ZN4Sass6Colors11yellowgreenE B 90
_ZN4Sass6Colors12antiquewhiteE B 90
_ZN4Sass6Colors12darkseagreenE B 90
_ZN4Sass6Colors12lemonchiffonE B 90
_ZN4Sass6Colors12lightskyblueE B 90
_ZN4Sass6Colors12mediumorchidE B 90
_ZN4Sass6Colors12mediumpurpleE B 90
_ZN4Sass6Colors12midnightblueE B 90
_ZN4Sass6Colors13darkgoldenrodE B 90
_ZN4Sass6Colors13darkslateblueE B 90
_ZN4Sass6Colors13darkslategrayE B 90
_ZN4Sass6Colors13darkslategreyE B 90
_ZN4Sass6Colors13darkturquoiseE B 90
_ZN4Sass6Colors13lavenderblushE B 90
_ZN4Sass6Colors13lightseagreenE B 90
_ZN4Sass6Colors13palegoldenrodE B 90
_ZN4Sass6Colors13paleturquoiseE B 90
_ZN4Sass6Colors13palevioletredE B 90
_ZN4Sass6Colors13rebeccapurpleE B 90
_ZN4Sass6Colors14blanchedalmondE B 90
_ZN4Sass6Colors14cornflowerblueE B 90
_ZN4Sass6Colors14darkolivegreenE B 90
_ZN4Sass6Colors14lightslategrayE B 90
_ZN4Sass6Colors14lightslategreyE B 90
_ZN4Sass6Colors14lightsteelblueE B 90
_ZN4Sass6Colors14mediumseagreenE B 90
_ZN4Sass6Colors15mediumslateblueE B 90
_ZN4Sass6Colors15mediumturquoiseE B 90
_ZN4Sass6Colors15mediumvioletredE B 90
_ZN4Sass6Colors16mediumaquamarineE B 90
_ZN4Sass6Colors17mediumspringgreenE B 90
_ZN4Sass6Colors20lightgoldenrodyellowE B 90
_ZN4Sass6Colors3redE B 90
_ZN4Sass6Colors3tanE B 90
_ZN4Sass6Colors4aquaE B 90
_ZN4Sass6Colors4blueE B 90
_ZN4Sass6Colors4cyanE B 90
_ZN4Sass6Colors4goldE B 90
_ZN4Sass6Colors4grayE B 90
_ZN4Sass6Colors4greyE B 90
_ZN4Sass6Colors4limeE B 90
_ZN4Sass6Colors4navyE B 90
_ZN4Sass6Colors4peruE B 90
_ZN4Sass6Colors4pinkE B 90
_ZN4Sass6Colors4plumE B 90
_ZN4Sass6Colors4snowE B 90
_ZN4Sass6Colors4tealE B 90
_ZN4Sass6Colors5azureE B 90
_ZN4Sass6Colors5beigeE B 90
_ZN4Sass6Colors5blackE B 90
_ZN4Sass6Colors5brownE B 90
_ZN4Sass6Colors5coralE B 90
_ZN4Sass6Colors5greenE B 90
_ZN4Sass6Colors5ivoryE B 90
_ZN4Sass6Colors5khakiE B 90
_ZN4Sass6Colors5linenE B 90
_ZN4Sass6Colors5oliveE B 90
_ZN4Sass6Colors5wheatE B 90
_ZN4Sass6Colors5whiteE B 90
_ZN4Sass6Colors6bisqueE B 90
_ZN4Sass6Colors6indigoE B 90
_ZN4Sass6Colors6maroonE B 90
_ZN4Sass6Colors6orangeE B 90
_ZN4Sass6Colors6orchidE B 90
_ZN4Sass6Colors6purpleE B 90
_ZN4Sass6Colors6salmonE B 90
_ZN4Sass6Colors6siennaE B 90
_ZN4Sass6Colors6silverE B 90
_ZN4Sass6Colors6tomatoE B 90
_ZN4Sass6Colors6violetE B 90
_ZN4Sass6Colors6yellowE B 90
_ZN4Sass6Colors7crimsonE B 90
_ZN4Sass6Colors7darkredE B 90
_ZN4Sass6Colors7dimgrayE B 90
_ZN4Sass6Colors7dimgreyE B 90
_ZN4Sass6Colors7fuchsiaE B 90
_ZN4Sass6Colors7hotpinkE B 90
_ZN4Sass6Colors7magentaE B 90
_ZN4Sass6Colors7oldlaceE B 90
_ZN4Sass6Colors7skyblueE B 90
_ZN4Sass6Colors7thistleE B 90
_ZN4Sass6Colors8cornsilkE B 90
_ZN4Sass6Colors8darkblueE B 90
_ZN4Sass6Colors8darkcyanE B 90
_ZN4Sass6Colors8darkgrayE B 90
_ZN4Sass6Colors8darkgreyE B 90
_ZN4Sass6Colors8deeppinkE B 90
_ZN4Sass6Colors8honeydewE B 90
_ZN4Sass6Colors8lavenderE B 90
_ZN4Sass6Colors8moccasinE B 90
_ZN4Sass6Colors8seagreenE B 90
_ZN4Sass6Colors8seashellE B 90
_ZN4Sass6Colors9aliceblueE B 90
_ZN4Sass6Colors9burlywoodE B 90
_ZN4Sass6Colors9cadetblueE B 90
_ZN4Sass6Colors9chocolateE B 90
_ZN4Sass6Colors9darkgreenE B 90
_ZN4Sass6Colors9darkkhakiE B 90
_ZN4Sass6Colors9firebrickE B 90
_ZN4Sass6Colors9gainsboroE B 90
_ZN4Sass6Colors9goldenrodE B 90
_ZN4Sass6Colors9indianredE B 90
_ZN4Sass6Colors9lawngreenE B 90
_ZN4Sass6Colors9lightblueE B 90
_ZN4Sass6Colors9lightcyanE B 90
_ZN4Sass6Colors9lightgrayE B 90
_ZN4Sass6Colors9lightgreyE B 90
_ZN4Sass6Colors9lightpinkE B 90
_ZN4Sass6Colors9limegreenE B 90
_ZN4Sass6Colors9mintcreamE B 90
_ZN4Sass6Colors9mistyroseE B 90
_ZN4Sass6Colors9olivedrabE B 90
_ZN4Sass6Colors9orangeredE B 90
_ZN4Sass6Colors9palegreenE B 90
_ZN4Sass6Colors9peachpuffE B 90
_ZN4Sass6Colors9rosybrownE B 90
_ZN4Sass6Colors9royalblueE B 90
_ZN4Sass6Colors9slateblueE B 90
_ZN4Sass6Colors9slategrayE B 90
_ZN4Sass6Colors9slategreyE B 90
_ZN4Sass6Colors9steelblueE B 90
_ZN4Sass6Colors9turquoiseE B 90
_ZN4Sass6Cssize12append_blockEPNS_5BlockES2_ T
_ZN4Sass6Cssize15slice_by_bubbleEPNS_5BlockE T
_ZN4Sass6Cssize6bubbleEPNS_10AtRootRuleE T
_ZN4Sass6Cssize6bubbleEPNS_12CssMediaRuleE T
_ZN4Sass6Cssize6bubbleEPNS_12SupportsRuleE T
_ZN4Sass6Cssize6bubbleEPNS_6AtRuleE T
_ZN4Sass6Cssize6parentEv T
_ZN4Sass6Cssize7flattenEPKNS_5BlockE T
_ZN4Sass6Cssize8debubbleEPNS_5BlockEPNS_9StatementE T
_ZN4Sass6Cssize9bubblableEPNS_9StatementE T
_ZN4Sass6CssizeC1ERNS_7ContextE T
_ZN4Sass6CssizeC2ERNS_7ContextE T
_ZN4Sass6CssizeclEPNS_10AtRootRuleE T
_ZN4Sass6CssizeclEPNS_11DeclarationE T
_ZN4Sass6CssizeclEPNS_12CssMediaRuleE T
_ZN4Sass6CssizeclEPNS_12SupportsRuleE T
_ZN4Sass6CssizeclEPNS_13Keyframe_RuleE T
_ZN4Sass6CssizeclEPNS_4NullE T
_ZN4Sass6CssizeclEPNS_5BlockE T
_ZN4Sass6CssizeclEPNS_5TraceE T
_ZN4Sass6CssizeclEPNS_6AtRuleE T
_ZN4Sass6CssizeclEPNS_9StyleRuleE T
_ZN4Sass6Expand11environmentEv T
_ZN4Sass6Expand12append_blockEPNS_5BlockE W
_ZN4Sass6Expand15popNullSelectorEv T
_ZN4Sass6Expand16getOriginalStackEv T
_ZN4Sass6Expand16getSelectorStackEv T
_ZN4Sass6Expand16pushNullSelectorEv T
_ZN4Sass6Expand17mergeMediaQueriesERKSt6vectorINS_10SharedImplINS_13CssMediaQueryEEESaIS4_EES8_ T
_ZN4Sass6Expand19pushToOriginalStackENS_10SharedImplINS_12SelectorListEEE T
_ZN4Sass6Expand19pushToSelectorStackENS_10SharedImplINS_12SelectorListEEE T
_ZN4Sass6Expand20popFromOriginalStackEv T
_ZN4Sass6Expand20popFromSelectorStackEv T
_ZN4Sass6Expand8originalEv T
_ZN4Sass6Expand8selectorEv T
_ZN4Sass6ExpandC1ERNS_7ContextEPNS_11EnvironmentINS_10SharedImplINS_8AST_NodeEEEEEPSt6vectorINS4_INS_12SelectorListEEESaISB_EESE_ T
_ZN4Sass6ExpandC2ERNS_7ContextEPNS_11EnvironmentINS_10SharedImplINS_8AST_NodeEEEEEPSt6vectorINS4_INS_12SelectorListEEESaISB_EESE_ T
_ZN4Sass6ExpandclEPNS_10AssignmentE T
_ZN4Sass6ExpandclEPNS_10AtRootRuleE T
_ZN4Sass6ExpandclEPNS_10DefinitionE T
_ZN4Sass6ExpandclEPNS_10ExtendRuleE T
_ZN4Sass6ExpandclEPNS_10Mixin_CallE T
_ZN4Sass6ExpandclEPNS_11DeclarationE T
_ZN4Sass6ExpandclEPNS_11Import_StubE T
_ZN4Sass6ExpandclEPNS_11WarningRuleE T
_ZN4Sass6ExpandclEPNS_12SupportsRuleE T
_ZN4Sass6ExpandclEPNS_2IfE T
_ZN4Sass6ExpandclEPNS_5BlockE T
_ZN4Sass6ExpandclEPNS_6AtRuleE T
_ZN4Sass6ExpandclEPNS_6ImportE T
_ZN4Sass6ExpandclEPNS_6ReturnE T
_ZN4Sass6ExpandclEPNS_7CommentE T
_ZN4Sass6ExpandclEPNS_7ContentE T
_ZN4Sass6ExpandclEPNS_7ForRuleE T
_ZN4Sass6ExpandclEPNS_8EachRuleE T
_ZN4Sass6ExpandclEPNS_9DebugRuleE T
_ZN4Sass6ExpandclEPNS_9ErrorRuleE T
_ZN4Sass6ExpandclEPNS_9MediaRuleE T
_ZN4Sass6ExpandclEPNS_9StyleRuleE T
_ZN4Sass6ExpandclEPNS_9WhileRuleE T
_ZN4Sass6ExpandD1Ev W
_ZN4Sass6ExpandD2Ev W
_ZN4Sass6HashedINS_10SharedImplINS_10ExpressionEEES3_NS1_INS_3MapEEEE20adjust_after_pushingESt4pairIS3_S3_E W
_ZN4Sass6HashedINS_10SharedImplINS_10ExpressionEEES3_NS1_INS_3MapEEEED0Ev W
_ZN4Sass6HashedINS_10SharedImplINS_10ExpressionEEES3_NS1_INS_3MapEEEED1Ev W
_ZN4Sass6HashedINS_10SharedImplINS_10ExpressionEEES3_NS1_INS_3MapEEEED2Ev W
_ZN4Sass6HashedINS_10SharedImplINS_10ExpressionEEES3_NS1_INS_3MapEEEEpLEPS6_ W
_ZN4Sass6Import4incsEv T
_ZN4Sass6Import4urlsEv T
_ZN4Sass6Import7performEPNS_9OperationINSt7__cxx1112basic_stringIcSt11char_traitsIcESaIcEEEEE W
_ZN4Sass6Import7performEPNS_9OperationIP10Sass_ValueEE W
_ZN4Sass6Import7performEPNS_9OperationIPNS_10ExpressionEEE W
_ZN4Sass6Import7performEPNS_9OperationIPNS_17SupportsConditionEEE W
_ZN4Sass6Import7performEPNS_9OperationIPNS_5ValueEEE W
_ZN4Sass6Import7performEPNS_9OperationIPNS_8AST_NodeEEE W
_ZN4Sass6Import7performEPNS_9OperationIPNS_8SelectorEEE W
_ZN4Sass6Import7performEPNS_9OperationIPNS_9StatementEEE W
_ZN4Sass6Import7performEPNS_9OperationIvEE W
_ZN4Sass6ImportC1ENS_10SourceSpanE T
_ZN4Sass6ImportC1EPKS0_ T
_ZN4Sass6ImportC2ENS_10SourceSpanE T
_ZN4Sass6ImportC2EPKS0_ T
_ZN4Sass6ImportD0Ev W
_ZN4Sass6ImportD1Ev W
_ZN4Sass6ImportD2Ev W
_ZN4Sass6Number6reduceEv T
_ZN4Sass6Number7performEPNS_9OperationINSt7__cxx1112basic_stringIcSt11char_traitsIcESaIcEEEEE W
_ZN4Sass6Number7performEPNS_9OperationIP10Sass_ValueEE W
_ZN4Sass6Number7performEPNS_9OperationIPNS_10ExpressionEEE W
_ZN4Sass6Number7performEPNS_9OperationIPNS_17SupportsConditionEEE W
_ZN4Sass6Number7performEPNS_9OperationIPNS_5ValueEEE W
_ZN4Sass6Number7performEPNS_9OperationIPNS_8AST_NodeEEE W
_ZN4Sass6Number7performEPNS_9OperationIPNS_8SelectorEEE W
_ZN4Sass6Number7performEPNS_9OperationIPNS_9StatementEEE W
_ZN4Sass6Number7performEPNS_9OperationIvEE W
_ZN4Sass6Number9normalizeEv T
_ZN4Sass6NumberC1ENS_10SourceSpanEdNSt7__cxx1112basic_stringIcSt11char_traitsIcESaIcEEEb T
_ZN4Sass6NumberC1EPKS0_ T
_ZN4Sass6NumberC2ENS_10SourceSpanEdNSt7__cxx1112basic_stringIcSt11char_traitsIcESaIcEEEb T
_ZN4Sass6NumberC2EPKS0_ T
_ZN4Sass6NumberD0Ev W
_ZN4Sass6NumberD1Ev W
_ZN4Sass6NumberD2Ev W
_ZN4Sass6Offset3addEPKcS2_ T
_ZN4Sass6Offset4initEPKcS2_ T
_ZN4Sass6OffsetC1Ec T
_ZN4Sass6OffsetC1Emm T
_ZN4Sass6OffsetC1EPKc T
_ZN4Sass6OffsetC1ERKNSt7__cxx1112basic_stringIcSt11char_traitsIcESaIcEEE T
_ZN4Sass6OffsetC2Ec T
_ZN4Sass6OffsetC2Emm T
_ZN4Sass6OffsetC2EPKc T
_ZN4Sass6OffsetC2ERKNSt7__cxx1112basic_stringIcSt11char_traitsIcESaIcEEE T
_ZN4Sass6OffsetpLERKS0_ T
_ZN4Sass6Output10get_bufferEv T
_ZN4Sass6Output13fallback_implEPNS_8AST_NodeE T
_ZN4Sass6OutputC1ER19Sass_Output_Options T
_ZN4Sass6OutputC2ER19Sass_Output_Options T
_ZN4Sass6OutputclEPNS_12CssMediaRuleE T
_ZN4Sass6OutputclEPNS_12SupportsRuleE T
_ZN4Sass6OutputclEPNS_13Keyframe_RuleE T
_ZN4Sass6OutputclEPNS_13String_QuotedE T
_ZN4Sass6OutputclEPNS_15String_ConstantE T
_ZN4Sass6OutputclEPNS_3MapE T
_ZN4Sass6OutputclEPNS_6AtRuleE T
_ZN4Sass6OutputclEPNS_6ImportE T
_ZN4Sass6OutputclEPNS_6NumberE T
_ZN4Sass6OutputclEPNS_7CommentE T
_ZN4Sass6OutputclEPNS_9StyleRuleE T
_ZN4Sass6OutputD0Ev T
_ZN4Sass6OutputD1Ev T
_ZN4Sass6OutputD2Ev T
_ZN4Sass6Parser10lex_interpIXadL_ZNS_8Prelexer18re_string_uri_openEPKcEEXadL_ZNS2_19re_string_uri_closeES4_EEEENS_10SharedImplINS_10ExpressionEEEv W
_ZN4Sass6Parser10lex_interpIXadL_ZNS_8Prelexer21re_string_double_openEPKcEEXadL_ZNS2_22re_string_double_closeES4_EEEENS_10SharedImplINS_10ExpressionEEEv W
_ZN4Sass6Parser10lex_interpIXadL_ZNS_8Prelexer21re_string_single_openEPKcEEXadL_ZNS2_22re_string_single_closeES4_EEEENS_10SharedImplINS_10ExpressionEEEv W
_ZN4Sass6Parser10parse_listEb T
_ZN4Sass6Parser11parse_blockEb T
_ZN4Sass6Parser11parse_debugEv T
_ZN4Sass6Parser11parse_errorEv T
_ZN4Sass6Parser11parse_valueEv T
_ZN4Sass6Parser12lexed_numberERKNS_10SourceSpanERKNSt7__cxx1112basic_stringIcSt11char_traitsIcESaIcEEE T
_ZN4Sass6Parser12lex_variableEv T
_ZN4Sass6Parser12parse_factorEv T
_ZN4Sass6Parser12parse_importEv T
_ZN4Sass6Parser12parse_stringEv T
_ZN4Sass6Parser12peek_newlineEPKc T
_ZN4Sass6Parser13fold_operandsENS_10SharedImplINS_10ExpressionEEERSt6vectorIS3_SaIS3_EENS_7OperandE T
_ZN4Sass6Parser13fold_operandsENS_10SharedImplINS_10ExpressionEEERSt6vectorIS3_SaIS3_EERS4_INS_7OperandESaIS8_EEm T
_ZN4Sass6Parser13parse_rulesetE9Lookahead T
_ZN4Sass6Parser13parse_warningEv T
_ZN4Sass6Parser14lex_identifierEv T
_ZN4Sass6Parser14lex_interp_uriEv T
_ZN4Sass6Parser14parse_argumentEv T
_ZN4Sass6Parser14parseMediaRuleEv T
_ZN4Sass6Parser14parse_relationEv T
_ZN4Sass6Parser14parse_selectorEPNS_10SourceDataERNS_7ContextESt6vectorINS_9BacktraceESaIS6_EEb T
_ZN4Sass6Parser15lexed_dimensionERKNS_10SourceSpanERKNSt7__cxx1112basic_stringIcSt11char_traitsIcESaIcEEE T
_ZN4Sass6Parser15lexed_hex_colorERKNS_10SourceSpanERKNSt7__cxx1112basic_stringIcSt11char_traitsIcESaIcEEE T
_ZN4Sass6Parser15parse_argumentsEv T
_ZN4Sass6Parser15parse_css_blockEb T
_ZN4Sass6Parser15parse_directiveEv T
_ZN4Sass6Parser15parseIdentifierB5cxx11Ev T
_ZN4Sass6Parser15parse_operatorsEv T
_ZN4Sass6Parser15parse_parameterEv T
_ZN4Sass6Parser16lexed_percentageERKNS_10SourceSpanERKNSt7__cxx1112basic_stringIcSt11char_traitsIcESaIcEEE T
_ZN4Sass6Parser16parse_assignmentEv T
_ZN4Sass6Parser16parse_block_nodeEb T
_ZN4Sass6Parser16parse_comma_listEb T
_ZN4Sass6Parser16parse_definitionENS_10Definition4TypeE T
_ZN4Sass6Parser16parse_expressionEv T
_ZN4Sass6Parser16parse_parametersEv T
_ZN4Sass6Parser16parse_space_listEv T
_ZN4Sass6Parser17lex_interpolationEv T
_ZN4Sass6Parser17lex_interp_stringEv T
_ZN4Sass6Parser17parse_block_nodesEb T
_ZN4Sass6Parser17parse_conjunctionEv T
_ZN4Sass6Parser17parse_declarationEv T
_ZN4Sass6Parser17parse_disjunctionEv T
_ZN4Sass6Parser17parse_ie_propertyEv T
_ZN4Sass6Parser17parse_media_queryEv T
_ZN4Sass6Parser17parseSelectorListEb T
_ZN4Sass6Parser18advanceToNextTokenEv T
_ZN4Sass6Parser18parse_bracket_listEv T
_ZN4Sass6Parser18parseCssMediaQueryEv T
_ZN4Sass6Parser18parse_if_directiveEb T
_ZN4Sass6Parser18parse_static_valueEv T
_ZN4Sass6Parser18parse_value_schemaEPKc T
_ZN4Sass6Parser19lookahead_for_valueEPKc T
_ZN4Sass6Parser19parse_at_root_blockEv T
_ZN4Sass6Parser19parse_at_root_queryEv T
_ZN4Sass6Parser19parse_calc_functionEv T
_ZN4Sass6Parser19parse_for_directiveEv T
_ZN4Sass6Parser19parse_function_callEv T
_ZN4Sass6Parser19parse_media_queriesEv T
_ZN4Sass6Parser20parse_block_commentsEb T
_ZN4Sass6Parser20parseComplexSelectorEb T
_ZN4Sass6Parser20parseCssMediaQueriesEv T
_ZN4Sass6Parser20parse_each_directiveEv T
_ZN4Sass6Parser20parse_ie_keyword_argEv T
_ZN4Sass6Parser21lookahead_for_includeEPKc T
_ZN4Sass6Parser21parseCompoundSelectorEv T
_ZN4Sass6Parser21parse_pseudo_selectorEv T
_ZN4Sass6Parser21parse_selector_schemaEPKcb T
_ZN4Sass6Parser21parse_simple_selectorEv T
_ZN4Sass6Parser21parse_while_directiveEv T
_ZN4Sass6Parser22lookahead_for_selectorEPKc T
_ZN4Sass6Parser22parse_almost_any_valueEv T
_ZN4Sass6Parser22parse_media_expressionEv T
_ZN4Sass6Parser22parse_return_directiveEv T
_ZN4Sass6Parser23parse_charset_directiveEv T
_ZN4Sass6Parser23parse_content_directiveEv T
_ZN4Sass6Parser23parse_identifier_schemaEv T
_ZN4Sass6Parser23parse_include_directiveEv T
_ZN4Sass6Parser23parse_negated_selector2Ev T
_ZN4Sass6Parser23parse_supports_negationEv T
_ZN4Sass6Parser23parse_supports_operatorEb T
_ZN4Sass6Parser23re_attr_sensitive_closeEPKc T
_ZN4Sass6Parser24parse_attribute_selectorEv T
_ZN4Sass6Parser24parse_css_variable_valueEv T
_ZN4Sass6Parser24parse_interpolated_chunkENS_5TokenEbb T
_ZN4Sass6Parser24parse_supports_conditionEb T
_ZN4Sass6Parser24parse_supports_directiveEv T
_ZN4Sass6Parser25parse_url_function_stringEv T
_ZN4Sass6Parser25re_attr_insensitive_closeEPKc T
_ZN4Sass6Parser26lex_almost_any_value_charsEv T
_ZN4Sass6Parser26lex_almost_any_value_tokenEv T
_ZN4Sass6Parser26parse_function_call_schemaEv T
_ZN4Sass6Parser26parse_supports_declarationEv T
_ZN4Sass6Parser27parse_url_function_argumentEv T
_ZN4Sass6Parser28parse_supports_interpolationEv T
_ZN4Sass6Parser34parse_supports_condition_in_parensEb T
_ZN4Sass6Parser3lexIXadL_ZNS_8Prelexer10identifierEPKcEEEES4_bb W
_ZN4Sass6Parser3lexIXadL_ZNS_8Prelexer10kwd_extendEPKcEEEES4_bb W
_ZN4Sass6Parser3lexIXadL_ZNS_8Prelexer10kwd_importEPKcEEEES4_bb W
_ZN4Sass6Parser3lexIXadL_ZNS_8Prelexer10percentageEPKcEEEES4_bb W
_ZN4Sass6Parser3lexIXadL_ZNS_8Prelexer11kwd_at_rootEPKcEEEES4_bb W
_ZN4Sass6Parser3lexIXadL_ZNS_8Prelexer12css_commentsEPKcEEEES4_bb W
_ZN4Sass6Parser3lexIXadL_ZNS_8Prelexer13pseudo_prefixEPKcEEEES4_bb W
_ZN4Sass6Parser3lexIXadL_ZNS_8Prelexer13quoted_stringEPKcEEEES4_bb W
_ZN4Sass6Parser3lexIXadL_ZNS_8Prelexer14css_whitespaceEPKcEEEES4_bb W
_ZN4Sass6Parser3lexIXadL_ZNS_8Prelexer15optional_spacesEPKcEEEES4_bb W
_ZN4Sass6Parser3lexIXadL_ZNS_8Prelexer17identifier_schemaEPKcEEEES4_bb W
_ZN4Sass6Parser3lexIXadL_ZNS_8Prelexer20kwd_return_directiveEPKcEEEES4_bb W
_ZN4Sass6Parser3lexIXadL_ZNS_8Prelexer21kwd_content_directiveEPKcEEEES4_bb W
_ZN4Sass6Parser3lexIXadL_ZNS_8Prelexer21kwd_include_directiveEPKcEEEES4_bb W
_ZN4Sass6Parser3lexIXadL_ZNS_8Prelexer22kwd_supports_directiveEPKcEEEES4_bb W
_ZN4Sass6Parser3lexIXadL_ZNS_8Prelexer4hexaEPKcEEEES4_bb W
_ZN4Sass6Parser3lexIXadL_ZNS_8Prelexer6numberEPKcEEEES4_bb W
_ZN4Sass6Parser3lexIXadL_ZNS_8Prelexer7exactlyILc40EEEPKcS5_EEEES5_bb W
_ZN4Sass6Parser3lexIXadL_ZNS_8Prelexer7exactlyILc41EEEPKcS5_EEEES5_bb W
_ZN4Sass6Parser3lexIXadL_ZNS_8Prelexer7exactlyILc43EEEPKcS5_EEEES5_bb W
_ZN4Sass6Parser3lexIXadL_ZNS_8Prelexer7exactlyILc45EEEPKcS5_EEEES5_bb W
_ZN4Sass6Parser3lexIXadL_ZNS_8Prelexer7exactlyILc47EEEPKcS5_EEEES5_bb W
_ZN4Sass6Parser3lexIXadL_ZNS_8Prelexer7exactlyILc58EEEPKcS5_EEEES5_bb W
_ZN4Sass6Parser3lexIXadL_ZNS_8Prelexer7exactlyILc91EEEPKcS5_EEEES5_bb W
_ZN4Sass6Parser3lexIXadL_ZNS_8Prelexer7exactlyIXadL_ZNS_9Constants8ellipsisEEEEEPKcS6_EEEES6_bb W
_ZN4Sass6Parser3lexIXadL_ZNS_8Prelexer7kwd_andEPKcEEEES4_bb W
_ZN4Sass6Parser3lexIXadL_ZNS_8Prelexer8kwd_nullEPKcEEEES4_bb W
_ZN4Sass6Parser3lexIXadL_ZNS_8Prelexer8sequenceIXadL_ZNS2_12alternativesIXadL_ZNS2_3hexEPKcEEXadL_ZNS2_4hex0ES6_EEJEEES6_S6_EEXadL_ZNS2_6negateIXadL_ZNS2_7exactlyILc45EEES6_S6_EEEES6_S6_EEJEEES6_S6_EEEES6_bb W
_ZN4Sass6Parser3lexIXadL_ZNS_8Prelexer8sequenceIXadL_ZNS2_7exactlyILc35EEEPKcS6_EEXadL_ZNS2_10identifierES6_EEJEEES6_S6_EEEES6_bb W
_ZN4Sass6Parser3lexIXadL_ZNS_8Prelexer8sequenceIXadL_ZNS2_7kwd_notEPKcEEEES5_S5_EEEES5_bb W
_ZN4Sass6Parser3lexIXadL_ZNS_8Prelexer8variableEPKcEEEES4_bb W
_ZN4Sass6Parser3lexIXadL_ZNS_8Prelexer9kwd_falseEPKcEEEES4_bb W
_ZN4Sass6Parser3lexIXadL_ZNS_8Prelexer9kwd_mediaEPKcEEEES4_bb W
_ZN4Sass6Parser4peekIXadL_ZNS_8Prelexer7exactlyILc123EEEPKcS5_EEEES5_S5_ W
_ZN4Sass6Parser5errorENSt7__cxx1112basic_stringIcSt11char_traitsIcESaIcEEE T
_ZN4Sass6Parser5parseEv T
_ZN4Sass6Parser7lex_cssIXadL_ZNS0_23re_attr_sensitive_closeEPKcEEEES3_v W
_ZN4Sass6Parser7lex_cssIXadL_ZNS0_25re_attr_insensitive_closeEPKcEEEES3_v W
_ZN4Sass6Parser7lex_cssIXadL_ZNS_8Prelexer7exactlyILc40EEEPKcS5_EEEES5_v W
_ZN4Sass6Parser7lex_cssIXadL_ZNS_8Prelexer7exactlyILc41EEEPKcS5_EEEES5_v W
_ZN4Sass6Parser7lex_cssIXadL_ZNS_8Prelexer7exactlyILc44EEEPKcS5_EEEES5_v W
_ZN4Sass6Parser7lex_cssIXadL_ZNS_8Prelexer7exactlyILc58EEEPKcS5_EEEES5_v W
_ZN4Sass6Parser8read_bomEv T
_ZN4Sass6Parser9css_errorERKNSt7__cxx1112basic_stringIcSt11char_traitsIcESaIcEEES8_S8_b T
_ZN4Sass6Parser9parse_mapEv T
_ZN4Sass6ParserC1EPNS_10SourceDataERNS_7ContextESt6vectorINS_9BacktraceESaIS6_EEb T
_ZN4Sass6ParserC2EPNS_10SourceDataERNS_7ContextESt6vectorINS_9BacktraceESaIS6_EEb T
_ZN4Sass6ParserD1Ev W
_ZN4Sass6ParserD2Ev W
_ZN4Sass6Return7performEPNS_9OperationINSt7__cxx1112basic_stringIcSt11char_traitsIcESaIcEEEEE W
_ZN4Sass6Return7performEPNS_9OperationIP10Sass_ValueEE W
_ZN4Sass6Return7performEPNS_9OperationIPNS_10ExpressionEEE W
_ZN4Sass6Return7performEPNS_9OperationIPNS_17SupportsConditionEEE W
_ZN4Sass6Return7performEPNS_9OperationIPNS_5ValueEEE W
_ZN4Sass6Return7performEPNS_9OperationIPNS_8AST_NodeEEE W
_ZN4Sass6Return7performEPNS_9OperationIPNS_8SelectorEEE W
_ZN4Sass6Return7performEPNS_9OperationIPNS_9StatementEEE W
_ZN4Sass6Return7performEPNS_9OperationIvEE W
_ZN4Sass6ReturnC1ENS_10SourceSpanENS_10SharedImplINS_10ExpressionEEE T
_ZN4Sass6ReturnC1EPKS0_ T
_ZN4Sass6ReturnC2ENS_10SourceSpanENS_10SharedImplINS_10ExpressionEEE T
_ZN4Sass6ReturnC2EPKS0_ T
_ZN4Sass6ReturnD0Ev W
_ZN4Sass6ReturnD1Ev W
_ZN4Sass6ReturnD2Ev W
_ZN4Sass6String7performEPNS_9OperationINSt7__cxx1112basic_stringIcSt11char_traitsIcESaIcEEEEE W
_ZN4Sass6String7performEPNS_9OperationIP10Sass_ValueEE W
_ZN4Sass6String7performEPNS_9OperationIPNS_10ExpressionEEE W
_ZN4Sass6String7performEPNS_9OperationIPNS_17SupportsConditionEEE W
_ZN4Sass6String7performEPNS_9OperationIPNS_5ValueEEE W
_ZN4Sass6String7performEPNS_9OperationIPNS_8AST_NodeEEE W
_ZN4Sass6String7performEPNS_9OperationIPNS_8SelectorEEE W
_ZN4Sass6String7performEPNS_9OperationIPNS_9StatementEEE W
_ZN4Sass6String7performEPNS_9OperationIvEE W
_ZN4Sass6StringC1ENS_10SourceSpanEb T
_ZN4Sass6StringC1EPKS0_ T
_ZN4Sass6StringC2ENS_10SourceSpanEb T
_ZN4Sass6StringC2EPKS0_ T
_ZN4Sass7Boolean7performEPNS_9OperationINSt7__cxx1112basic_stringIcSt11char_traitsIcESaIcEEEEE W
_ZN4Sass7Boolean7performEPNS_9OperationIP10Sass_ValueEE W
_ZN4Sass7Boolean7performEPNS_9OperationIPNS_10ExpressionEEE W
_ZN4Sass7Boolean7performEPNS_9OperationIPNS_17SupportsConditionEEE W
_ZN4Sass7Boolean7performEPNS_9OperationIPNS_5ValueEEE W
_ZN4Sass7Boolean7performEPNS_9OperationIPNS_8AST_NodeEEE W
_ZN4Sass7Boolean7performEPNS_9OperationIPNS_8SelectorEEE W
_ZN4Sass7Boolean7performEPNS_9OperationIPNS_9StatementEEE W
_ZN4Sass7Boolean7performEPNS_9OperationIvEE W
_ZN4Sass7Boolean8is_falseEv W
_ZN4Sass7BooleanC1ENS_10SourceSpanEb T
_ZN4Sass7BooleanC1EPKS0_ T
_ZN4Sass7BooleanC2ENS_10SourceSpanEb T
_ZN4Sass7BooleanC2EPKS0_ T
_ZN4Sass7BooleancvbEv W
_ZN4Sass7BooleanD0Ev W
_ZN4Sass7BooleanD1Ev W
_ZN4Sass7BooleanD2Ev W
_ZN4Sass7Comment7performEPNS_9OperationINSt7__cxx1112basic_stringIcSt11char_traitsIcESaIcEEEEE W
_ZN4Sass7Comment7performEPNS_9OperationIP10Sass_ValueEE W
_ZN4Sass7Comment7performEPNS_9OperationIPNS_10ExpressionEEE W
_ZN4Sass7Comment7performEPNS_9OperationIPNS_17SupportsConditionEEE W
_ZN4Sass7Comment7performEPNS_9OperationIPNS_5ValueEEE W
_ZN4Sass7Comment7performEPNS_9OperationIPNS_8AST_NodeEEE W
_ZN4Sass7Comment7performEPNS_9OperationIPNS_8SelectorEEE W
_ZN4Sass7Comment7performEPNS_9OperationIPNS_9StatementEEE W
_ZN4Sass7Comment7performEPNS_9OperationIvEE W
_ZN4Sass7CommentC1ENS_10SourceSpanENS_10SharedImplINS_6StringEEEb T
_ZN4Sass7CommentC1EPKS0_ T
_ZN4Sass7CommentC2ENS_10SourceSpanENS_10SharedImplINS_6StringEEEb T
_ZN4Sass7CommentC2EPKS0_ T
_ZN4Sass7CommentD0Ev W
_ZN4Sass7CommentD1Ev W
_ZN4Sass7CommentD2Ev W
_ZN4Sass7Content7performEPNS_9OperationINSt7__cxx1112basic_stringIcSt11char_traitsIcESaIcEEEEE W
_ZN4Sass7Content7performEPNS_9OperationIP10Sass_ValueEE W
_ZN4Sass7Content7performEPNS_9OperationIPNS_10ExpressionEEE W
_ZN4Sass7Content7performEPNS_9OperationIPNS_17SupportsConditionEEE W
_ZN4Sass7Content7performEPNS_9OperationIPNS_5ValueEEE W
_ZN4Sass7Content7performEPNS_9OperationIPNS_8AST_NodeEEE W
_ZN4Sass7Content7performEPNS_9OperationIPNS_8SelectorEEE W
_ZN4Sass7Content7performEPNS_9OperationIPNS_9StatementEEE W
_ZN4Sass7Content7performEPNS_9OperationIvEE W
_ZN4Sass7ContentC1ENS_10SourceSpanENS_10SharedImplINS_9ArgumentsEEE T
_ZN4Sass7ContentC1EPKS0_ T
_ZN4Sass7ContentC2ENS_10SourceSpanENS_10SharedImplINS_9ArgumentsEEE T
_ZN4Sass7ContentC2EPKS0_ T
_ZN4Sass7ContentD0Ev W
_ZN4Sass7ContentD1Ev W
_ZN4Sass7ContentD2Ev W
_ZN4Sass7Context10import_urlEPNS_6ImportENSt7__cxx1112basic_stringIcSt11char_traitsIcESaIcEEERKS8_ T
_ZN4Sass7Context11call_loaderERKNSt7__cxx1112basic_stringIcSt11char_traitsIcESaIcEEEPKcRNS_10SourceSpanEPNS_6ImportESt6vectorIP13Sass_ImporterSaISH_EEb T
_ZN4Sass7Context11load_importERKNS_8ImporterENS_10SourceSpanE T
_ZN4Sass7Context12add_c_headerEP13Sass_Importer T
_ZN4Sass7Context13find_includesERKNS_8ImporterE T
_ZN4Sass7Context13render_srcmapEv T
_ZN4Sass7Context14add_c_functionEP13Sass_Function T
_ZN4Sass7Context14add_c_importerEP13Sass_Importer T
_ZN4Sass7Context17register_resourceERKNS_7IncludeERKNS_8ResourceE T
_ZN4Sass7Context17register_resourceERKNS_7IncludeERKNS_8ResourceERNS_10SourceSpanE T
_ZN4Sass7Context18get_included_filesB5cxx11Ebm T
_ZN4Sass7Context20apply_custom_headersENS_10SharedImplINS_5BlockEEEPKcNS_10SourceSpanE T
_ZN4Sass7Context20collect_plugin_pathsEP11string_list T
_ZN4Sass7Context20collect_plugin_pathsEPKc T
_ZN4Sass7Context21collect_include_pathsEP11string_list T
_ZN4Sass7Context21collect_include_pathsEPKc T
_ZN4Sass7Context25format_source_mapping_urlERKNSt7__cxx1112basic_stringIcSt11char_traitsIcESaIcEEE T
_ZN4Sass7Context26format_embedded_source_mapB5cxx11Ev T
_ZN4Sass7Context6renderENS_10SharedImplINS_5BlockEEE T
_ZN4Sass7Context7compileEv T
_ZN4Sass7ContextC1ER12Sass_Context T
_ZN4Sass7ContextC2ER12Sass_Context T
_ZN4Sass7ContextD0Ev T
_ZN4Sass7ContextD1Ev T
_ZN4Sass7ContextD2Ev T
_ZN4Sass7Emitter10get_bufferB5cxx11Ev T
_ZN4Sass7Emitter11append_charEc T
_ZN4Sass7Emitter12append_tokenERKNSt7__cxx1112basic_stringIcSt11char_traitsIcESaIcEEEPKNS_8AST_NodeE T
_ZN4Sass7Emitter12set_filenameERKNSt7__cxx1112basic_stringIcSt11char_traitsIcESaIcEEE T
_ZN4Sass7Emitter13append_stringERKNSt7__cxx1112basic_stringIcSt11char_traitsIcESaIcEEE T
_ZN4Sass7Emitter13append_wspaceERKNSt7__cxx1112basic_stringIcSt11char_traitsIcESaIcEEE T
_ZN4Sass7Emitter13render_srcmapB5cxx11ERNS_7ContextE T
_ZN4Sass7Emitter14prepend_outputERKNS_12OutputBufferE T
_ZN4Sass7Emitter14prepend_stringERKNSt7__cxx1112basic_stringIcSt11char_traitsIcESaIcEEE T
_ZN4Sass7Emitter15flush_schedulesEv T
_ZN4Sass7Emitter16add_open_mappingEPKNS_8AST_NodeE T
_ZN4Sass7Emitter16add_source_indexEm T
_ZN4Sass7Emitter16append_delimiterEv T
_ZN4Sass7Emitter16schedule_mappingEPKNS_8AST_NodeE T
_ZN4Sass7Emitter17add_close_mappingEPKNS_8AST_NodeE T
_ZN4Sass7Emitter18append_indentationEv T
_ZN4Sass7Emitter19append_scope_closerEPNS_8AST_NodeE T
_ZN4Sass7Emitter19append_scope_openerEPNS_8AST_NodeE T
_ZN4Sass7Emitter21append_optional_spaceEv T
_ZN4Sass7Emitter22append_colon_separatorEv T
_ZN4Sass7Emitter22append_comma_separatorEv T
_ZN4Sass7Emitter22append_mandatory_spaceEv T
_ZN4Sass7Emitter23append_special_linefeedEv T
_ZN4Sass7Emitter24append_optional_linefeedEv T
_ZN4Sass7Emitter25append_mandatory_linefeedEv T
_ZN4Sass7Emitter5remapERKNS_10SourceSpanE T
_ZN4Sass7Emitter8finalizeEb T
_ZN4Sass7Emitter9last_charEv T
_ZN4Sass7EmitterC1ER19Sass_Output_Options T
_ZN4Sass7EmitterC2ER19Sass_Output_Options T
_ZN4Sass7EmitterD0Ev W
_ZN4Sass7EmitterD1Ev W
_ZN4Sass7EmitterD2Ev W
_ZN4Sass7ForRule7performEPNS_9OperationINSt7__cxx1112basic_stringIcSt11char_traitsIcESaIcEEEEE W
_ZN4Sass7ForRule7performEPNS_9OperationIP10Sass_ValueEE W
_ZN4Sass7ForRule7performEPNS_9OperationIPNS_10ExpressionEEE W
_ZN4Sass7ForRule7performEPNS_9OperationIPNS_17SupportsConditionEEE W
_ZN4Sass7ForRule7performEPNS_9OperationIPNS_5ValueEEE W
_ZN4Sass7ForRule7performEPNS_9OperationIPNS_8AST_NodeEEE W
_ZN4Sass7ForRule7performEPNS_9OperationIPNS_8SelectorEEE W
_ZN4Sass7ForRule7performEPNS_9OperationIPNS_9StatementEEE W
_ZN4Sass7ForRule7performEPNS_9OperationIvEE W
_ZN4Sass7ForRuleC1ENS_10SourceSpanENSt7__cxx1112basic_stringIcSt11char_traitsIcESaIcEEENS_10SharedImplINS_10ExpressionEEESA_NS8_INS_5BlockEEEb T
_ZN4Sass7ForRuleC1EPKS0_ T
_ZN4Sass7ForRuleC2ENS_10SourceSpanENSt7__cxx1112basic_stringIcSt11char_traitsIcESaIcEEENS_10SharedImplINS_10ExpressionEEESA_NS8_INS_5BlockEEEb T
_ZN4Sass7ForRuleC2EPKS0_ T
_ZN4Sass7ForRuleD0Ev W
_ZN4Sass7ForRuleD1Ev W
_ZN4Sass7ForRuleD2Ev W
_ZN4Sass7hasRootEPKNS_16CompoundSelectorE T
_ZN4Sass7IncludeC1ERKS0_ W
_ZN4Sass7IncludeC2ERKS0_ W
_ZN4Sass7IncludeD1Ev W
_ZN4Sass7IncludeD2Ev W
_ZN4Sass7Inspect8lbracketB5cxx11EPNS_4ListE T
_ZN4Sass7Inspect8rbracketB5cxx11EPNS_4ListE T
_ZN4Sass7InspectC1ERKNS_7EmitterE T
_ZN4Sass7InspectC2ERKNS_7EmitterE T
_ZN4Sass7InspectclEPNS_10AssignmentE T
_ZN4Sass7InspectclEPNS_10AtRootRuleE T
_ZN4Sass7InspectclEPNS_10Color_HSLAE T
_ZN4Sass7InspectclEPNS_10Color_RGBAE T
_ZN4Sass7InspectclEPNS_10DefinitionE T
_ZN4Sass7InspectclEPNS_10ExtendRuleE T
_ZN4Sass7InspectclEPNS_10IDSelectorE T
_ZN4Sass7InspectclEPNS_10Mixin_CallE T
_ZN4Sass7InspectclEPNS_10ParametersE T
_ZN4Sass7InspectclEPNS_11DeclarationE T
_ZN4Sass7InspectclEPNS_11Import_StubE T
_ZN4Sass7InspectclEPNS_11Media_QueryE T
_ZN4Sass7InspectclEPNS_11WarningRuleE T
_ZN4Sass7InspectclEPNS_12CssMediaRuleE T
_ZN4Sass7InspectclEPNS_12Custom_ErrorE T
_ZN4Sass7InspectclEPNS_12SelectorListE T
_ZN4Sass7InspectclEPNS_12SupportsRuleE T
_ZN4Sass7InspectclEPNS_12TypeSelectorE T
_ZN4Sass7InspectclEPNS_13At_Root_QueryE T
_ZN4Sass7InspectclEPNS_13ClassSelectorE T
_ZN4Sass7InspectclEPNS_13CssMediaQueryE T
_ZN4Sass7InspectclEPNS_13Function_CallE T
_ZN4Sass7InspectclEPNS_13Keyframe_RuleE T
_ZN4Sass7InspectclEPNS_13String_QuotedE T
_ZN4Sass7InspectclEPNS_13String_SchemaE T
_ZN4Sass7InspectclEPNS_14Custom_WarningE T
_ZN4Sass7InspectclEPNS_14PseudoSelectorE T
_ZN4Sass7InspectclEPNS_15ComplexSelectorE T
_ZN4Sass7InspectclEPNS_15Selector_SchemaE T
_ZN4Sass7InspectclEPNS_15String_ConstantE T
_ZN4Sass7InspectclEPNS_16CompoundSelectorE T
_ZN4Sass7InspectclEPNS_16Parent_ReferenceE T
_ZN4Sass7InspectclEPNS_16SupportsNegationE T
_ZN4Sass7InspectclEPNS_16Unary_ExpressionE T
_ZN4Sass7InspectclEPNS_17AttributeSelectorE T
_ZN4Sass7InspectclEPNS_17Binary_ExpressionE T
_ZN4Sass7InspectclEPNS_17SelectorComponentE T
_ZN4Sass7InspectclEPNS_17SupportsOperationE T
_ZN4Sass7InspectclEPNS_18SelectorCombinatorE T
_ZN4Sass7InspectclEPNS_19PlaceholderSelectorE T
_ZN4Sass7InspectclEPNS_19SupportsDeclarationE T
_ZN4Sass7InspectclEPNS_22Media_Query_ExpressionE T
_ZN4Sass7InspectclEPNS_22Supports_InterpolationE T
_ZN4Sass7InspectclEPNS_2IfE T
_ZN4Sass7InspectclEPNS_3MapE T
_ZN4Sass7InspectclEPNS_4ListE T
_ZN4Sass7InspectclEPNS_4NullE T
_ZN4Sass7InspectclEPNS_5BlockE T
_ZN4Sass7InspectclEPNS_6AtRuleE T
_ZN4Sass7InspectclEPNS_6BubbleE T
_ZN4Sass7InspectclEPNS_6ImportE T
_ZN4Sass7InspectclEPNS_6NumberE T
_ZN4Sass7InspectclEPNS_6ReturnE T
_ZN4Sass7InspectclEPNS_7BooleanE T
_ZN4Sass7InspectclEPNS_7CommentE T
_ZN4Sass7InspectclEPNS_7ContentE T
_ZN4Sass7InspectclEPNS_7ForRuleE T
_ZN4Sass7InspectclEPNS_8ArgumentE T
_ZN4Sass7InspectclEPNS_8EachRuleE T
_ZN4Sass7InspectclEPNS_8FunctionE T
_ZN4Sass7InspectclEPNS_8VariableE T
_ZN4Sass7InspectclEPNS_9ArgumentsE T
_ZN4Sass7InspectclEPNS_9DebugRuleE T
_ZN4Sass7InspectclEPNS_9ErrorRuleE T
_ZN4Sass7InspectclEPNS_9MediaRuleE T
_ZN4Sass7InspectclEPNS_9ParameterE T
_ZN4Sass7InspectclEPNS_9StyleRuleE T
_ZN4Sass7InspectclEPNS_9WhileRuleE T
_ZN4Sass7InspectD0Ev T
_ZN4Sass7InspectD1Ev T
_ZN4Sass7InspectD2Ev T
_ZN4Sass7Listize7performEPNS_8AST_NodeE T
_ZN4Sass7ListizeC1Ev T
_ZN4Sass7ListizeC2Ev T
_ZN4Sass7ListizeclEPNS_12SelectorListE T
_ZN4Sass7ListizeclEPNS_15ComplexSelectorE T
_ZN4Sass7ListizeclEPNS_16CompoundSelectorE T
_ZN4Sass7Plugins11load_pluginERKNSt7__cxx1112basic_stringIcSt11char_traitsIcESaIcEEE T
_ZN4Sass7Plugins12load_pluginsERKNSt7__cxx1112basic_stringIcSt11char_traitsIcESaIcEEE T
_ZN4Sass7PluginsC1Ev T
_ZN4Sass7PluginsC2Ev T
_ZN4Sass7PluginsD1Ev T
_ZN4Sass7PluginsD2Ev T
_ZN4Sass7processERNSt7__cxx1112basic_stringIcSt11char_traitsIcESaIcEEERNS_9converterE T
_ZN4Sass7unquoteERKNSt7__cxx1112basic_stringIcSt11char_traitsIcESaIcEEEPcbb T
_ZN4Sass7warningENSt7__cxx1112basic_stringIcSt11char_traitsIcESaIcEEENS_10SourceSpanE T
_ZN4Sass8Argument11set_delayedEb T
_ZN4Sass8Argument7performEPNS_9OperationINSt7__cxx1112basic_stringIcSt11char_traitsIcESaIcEEEEE W
_ZN4Sass8Argument7performEPNS_9OperationIP10Sass_ValueEE W
_ZN4Sass8Argument7performEPNS_9OperationIPNS_10ExpressionEEE W
_ZN4Sass8Argument7performEPNS_9OperationIPNS_17SupportsConditionEEE W
_ZN4Sass8Argument7performEPNS_9OperationIPNS_5ValueEEE W
_ZN4Sass8Argument7performEPNS_9OperationIPNS_8AST_NodeEEE W
_ZN4Sass8Argument7performEPNS_9OperationIPNS_8SelectorEEE W
_ZN4Sass8Argument7performEPNS_9OperationIPNS_9StatementEEE W
_ZN4Sass8Argument7performEPNS_9OperationIvEE W
_ZN4Sass8ArgumentC1ENS_10SourceSpanENS_10SharedImplINS_10ExpressionEEENSt7__cxx1112basic_stringIcSt11char_traitsIcESaIcEEEbb T
_ZN4Sass8ArgumentC1EPKS0_ T
_ZN4Sass8ArgumentC2ENS_10SourceSpanENS_10SharedImplINS_10ExpressionEEENSt7__cxx1112basic_stringIcSt11char_traitsIcESaIcEEEbb T
_ZN4Sass8ArgumentC2EPKS0_ T
_ZN4Sass8ArgumentD0Ev W
_ZN4Sass8ArgumentD1Ev W
_ZN4Sass8ArgumentD2Ev W
_ZN4Sass8AST_Node13cloneChildrenEv W
_ZN4Sass8AST_Node13update_pstateERKNS_10SourceSpanE T
_ZN4Sass8AST_Node4findEPFbNS_10SharedImplIS0_EEE W
_ZN4Sass8EachRule7performEPNS_9OperationINSt7__cxx1112basic_stringIcSt11char_traitsIcESaIcEEEEE W
_ZN4Sass8EachRule7performEPNS_9OperationIP10Sass_ValueEE W
_ZN4Sass8EachRule7performEPNS_9OperationIPNS_10ExpressionEEE W
_ZN4Sass8EachRule7performEPNS_9OperationIPNS_17SupportsConditionEEE W
_ZN4Sass8EachRule7performEPNS_9OperationIPNS_5ValueEEE W
_ZN4Sass8EachRule7performEPNS_9OperationIPNS_8AST_NodeEEE W
_ZN4Sass8EachRule7performEPNS_9OperationIPNS_8SelectorEEE W
_ZN4Sass8EachRule7performEPNS_9OperationIPNS_9StatementEEE W
_ZN4Sass8EachRule7performEPNS_9OperationIvEE W
_ZN4Sass8EachRuleC1ENS_10SourceSpanESt6vectorINSt7__cxx1112basic_stringIcSt11char_traitsIcESaIcEEESaIS8_EENS_10SharedImplINS_10ExpressionEEENSB_INS_5BlockEEE T
_ZN4Sass8EachRuleC1EPKS0_ T
_ZN4Sass8EachRuleC2ENS_10SourceSpanESt6vectorINSt7__cxx1112basic_stringIcSt11char_traitsIcESaIcEEESaIS8_EENS_10SharedImplINS_10ExpressionEEENSB_INS_5BlockEEE T
_ZN4Sass8EachRuleC2EPKS0_ T
_ZN4Sass8EachRuleD0Ev W
_ZN4Sass8EachRuleD1Ev W
_ZN4Sass8EachRuleD2Ev W
_ZN4Sass8Extender10extendListERKNS_10SharedImplINS_12SelectorListEEERKSt13unordered_mapINS1_INS_14SimpleSelectorEEENS_11ordered_mapINS1_INS_15ComplexSelectorEEENS_9ExtensionENS_7ObjHashENS_11ObjEqualityESaISt4pairIKSB_SC_EEEESD_SE_SaISF_IKS8_SJ_EEERKNS1_INS_12CssMediaRuleEEE T
_ZN4Sass8Extender11addSelectorERKNS_10SharedImplINS_12SelectorListEEERKNS1_INS_12CssMediaRuleEEE T
_ZN4Sass8Extender11rotateSliceERSt6vectorINS_10SharedImplINS_15ComplexSelectorEEESaIS4_EEmm T
_ZN4Sass8Extender12addExtensionERKNS_10SharedImplINS_12SelectorListEEERKNS1_INS_14SimpleSelectorEEERKNS1_INS_12CssMediaRuleEEEb T
_ZN4Sass8Extender12extendPseudoERKNS_10SharedImplINS_14PseudoSelectorEEERKSt13unordered_mapINS1_INS_14SimpleSelectorEEENS_11ordered_mapINS1_INS_15ComplexSelectorEEENS_9ExtensionENS_7ObjHashENS_11ObjEqualityESaISt4pairIKSB_SC_EEEESD_SE_SaISF_IKS8_SJ_EEERKNS1_INS_12CssMediaRuleEEE T
_ZN4Sass8Extender12extendSimpleERKNS_10SharedImplINS_14SimpleSelectorEEERKSt13unordered_mapIS3_NS_11ordered_mapINS1_INS_15ComplexSelectorEEENS_9ExtensionENS_7ObjHashENS_11ObjEqualityESaISt4pairIKS9_SA_EEEESB_SC_SaISD_IS4_SH_EEERKNS1_INS_12CssMediaRuleEEEPSt13unordered_setIS3_SB_SC_SaIS3_EE T
_ZN4Sass8Extender13extendComplexERKNS_10SharedImplINS_15ComplexSelectorEEERKSt13unordered_mapINS1_INS_14SimpleSelectorEEENS_11ordered_mapIS3_NS_9ExtensionENS_7ObjHashENS_11ObjEqualityESaISt4pairIS4_SA_EEEESB_SC_SaISD_IKS8_SG_EEERKNS1_INS_12CssMediaRuleEEE T
_ZN4Sass8Extender13hasExactlyOneERKNS_10SharedImplINS_15ComplexSelectorEEE T
_ZN4Sass8Extender14extendCompoundERKNS_10SharedImplINS_16CompoundSelectorEEERKSt13unordered_mapINS1_INS_14SimpleSelectorEEENS_11ordered_mapINS1_INS_15ComplexSelectorEEENS_9ExtensionENS_7ObjHashENS_11ObjEqualityESaISt4pairIKSB_SC_EEEESD_SE_SaISF_IKS8_SJ_EEERKNS1_INS_12CssMediaRuleEEEb T
_ZN4Sass8Extender14hasMoreThanOneERKNS_10SharedImplINS_15ComplexSelectorEEE T
_ZN4Sass8Extender14mergeExtensionERKNS_9ExtensionES3_ T
_ZN4Sass8Extender15dontTrimComplexEPKNS_15ComplexSelectorES3_m T
_ZN4Sass8Extender15extendOrReplaceERNS_10SharedImplINS_12SelectorListEEERKS3_S6_NS0_10ExtendModeERSt6vectorINS_9BacktraceESaIS9_EE T
_ZN4Sass8Extender16registerSelectorERKNS_10SharedImplINS_12SelectorListEEES5_ T
_ZN4Sass8Extender19extendPseudoComplexERKNS_10SharedImplINS_15ComplexSelectorEEERKNS1_INS_14PseudoSelectorEEERKNS1_INS_12CssMediaRuleEEE T
_ZN4Sass8Extender24extendExistingExtensionsERKSt6vectorINS_9ExtensionESaIS2_EERKSt13unordered_mapINS_10SharedImplINS_14SimpleSelectorEEENS_11ordered_mapINS8_INS_15ComplexSelectorEEES2_NS_7ObjHashENS_11ObjEqualityESaISt4pairIKSD_S2_EEEESE_SF_SaISG_IKSA_SK_EEE T
_ZN4Sass8Extender24extendExistingStyleRulesERKSt13unordered_setINS_10SharedImplINS_12SelectorListEEENS_10ObjPtrHashENS_14ObjPtrEqualityESaIS4_EERKSt13unordered_mapINS2_INS_14SimpleSelectorEEENS_11ordered_mapINS2_INS_15ComplexSelectorEEENS_9ExtensionENS_7ObjHashENS_11ObjEqualityESaISt4pairIKSG_SH_EEEESI_SJ_SaISK_IKSD_SO_EEE T
_ZN4Sass8Extender6extendERNS_10SharedImplINS_12SelectorListEEERKS3_S6_RSt6vectorINS_9BacktraceESaIS8_EE T
_ZN4Sass8Extender7replaceERNS_10SharedImplINS_12SelectorListEEERKS3_S6_RSt6vectorINS_9BacktraceESaIS8_EE T
_ZN4Sass8ExtenderC1ENS0_10ExtendModeERSt6vectorINS_9BacktraceESaIS3_EE T
_ZN4Sass8ExtenderC1ERSt6vectorINS_9BacktraceESaIS2_EE T
_ZN4Sass8ExtenderC2ENS0_10ExtendModeERSt6vectorINS_9BacktraceESaIS3_EE T
_ZN4Sass8ExtenderC2ERSt6vectorINS_9BacktraceESaIS2_EE T
_ZN4Sass8ExtenderD1Ev W
_ZN4Sass8ExtenderD2Ev W
_ZN4Sass8Function4nameB5cxx11Ev T
_ZN4Sass8Function7performEPNS_9OperationINSt7__cxx1112basic_stringIcSt11char_traitsIcESaIcEEEEE W
_ZN4Sass8Function7performEPNS_9OperationIP10Sass_ValueEE W
_ZN4Sass8Function7performEPNS_9OperationIPNS_10ExpressionEEE W
_ZN4Sass8Function7performEPNS_9OperationIPNS_17SupportsConditionEEE W
_ZN4Sass8Function7performEPNS_9OperationIPNS_5ValueEEE W
_ZN4Sass8Function7performEPNS_9OperationIPNS_8AST_NodeEEE W
_ZN4Sass8Function7performEPNS_9OperationIPNS_8SelectorEEE W
_ZN4Sass8Function7performEPNS_9OperationIPNS_9StatementEEE W
_ZN4Sass8Function7performEPNS_9OperationIvEE W
_ZN4Sass8FunctionC1ENS_10SourceSpanENS_10SharedImplINS_10DefinitionEEEb T
_ZN4Sass8FunctionC1EPKS0_ T
_ZN4Sass8FunctionC2ENS_10SourceSpanENS_10SharedImplINS_10DefinitionEEEb T
_ZN4Sass8FunctionC2EPKS0_ T
_ZN4Sass8FunctionD0Ev W
_ZN4Sass8FunctionD1Ev W
_ZN4Sass8FunctionD2Ev W
_ZN4Sass8h_to_rgbEddd T
_ZN4Sass8ImporterC1ENSt7__cxx1112basic_stringIcSt11char_traitsIcESaIcEEES6_ W
_ZN4Sass8ImporterC2ENSt7__cxx1112basic_stringIcSt11char_traitsIcESaIcEEES6_ W
_ZN4Sass8ImporterD1Ev W
_ZN4Sass8ImporterD2Ev W
_ZN4Sass8isUniqueEPKNS_14SimpleSelectorE T
_ZN4Sass8ItplFile13getSourceSpanEv T
_ZN4Sass8ItplFileC1EPKcRKNS_10SourceSpanE T
_ZN4Sass8ItplFileC2EPKcRKNS_10SourceSpanE T
_ZN4Sass8ItplFileD0Ev W
_ZN4Sass8ItplFileD1Ev W
_ZN4Sass8ItplFileD2Ev W
_ZN4Sass8list2vecB5cxx11EP11string_list T
_ZN4Sass8Position3addEPKcS2_ T
_ZN4Sass8PositionC1Em T
_ZN4Sass8PositionC1Emm T
_ZN4Sass8PositionC1Emmm T
_ZN4Sass8PositionC1EmRKNS_6OffsetE T
_ZN4Sass8PositionC2Em T
_ZN4Sass8PositionC2Emm T
_ZN4Sass8PositionC2Emmm T
_ZN4Sass8PositionC2EmRKNS_6OffsetE T
_ZN4Sass8PositionpLERKNS_6OffsetE T
_ZN4Sass8Prelexer10at_keywordEPKc T
_ZN4Sass8Prelexer10class_charIXadL_ZNS_9Constants10static_opsEEEEEPKcS4_ W
_ZN4Sass8Prelexer10class_charIXadL_ZNS_9Constants23complex_selector_delimsEEEEEPKcS4_ W
_ZN4Sass8Prelexer10class_charIXadL_ZNS_9Constants23selector_combinator_opsEEEEEPKcS4_ W
_ZN4Sass8Prelexer10class_nameEPKc T
_ZN4Sass8Prelexer10dash_matchEPKc T
_ZN4Sass8Prelexer10escape_seqEPKc T
_ZN4Sass8Prelexer10identifierEPKc T
_ZN4Sass8Prelexer10kwd_extendEPKc T
_ZN4Sass8Prelexer10kwd_importEPKc T
_ZN4Sass8Prelexer10non_greedyIXadL_ZNS0_12alternativesIXadL_ZNS0_13block_commentEPKcEEXadL_ZNS0_8sequenceIXadL_ZNS0_11interpolantES4_EEXadL_ZNS0_8optionalIXadL_ZNS0_13quoted_stringES4_EEEES4_S4_EEJEEES4_S4_EEJXadL_ZNS0_10identifierES4_EEXadL_ZNS0_8variableES4_EEXadL_ZNS5_IXadL_ZNS0_16parenthese_scopeES4_EEXadL_ZNS0_11interpolantES4_EEJXadL_ZNS6_IXadL_ZNS0_13quoted_stringES4_EEEES4_S4_EEEEES4_S4_EEEEES4_S4_EEXadL_ZNS0_8sequenceIXadL_ZNS2_IXadL_ZNS0_7exactlyILc123EEES4_S4_EEXadL_ZNS8_ILc125EEES4_S4_EEJXadL_ZNS8_ILc59EEES4_S4_EEEEES4_S4_EEEES4_S4_EEEES4_S4_ W
_ZN4Sass8Prelexer10percentageEPKc T
_ZN4Sass8Prelexer10pseudo_notEPKc T
_ZN4Sass8Prelexer10re_nothingEPKc T
_ZN4Sass8Prelexer10sass_valueEPKc T
_ZN4Sass8Prelexer10uri_prefixEPKc T
_ZN4Sass8Prelexer11class_matchEPKc T
_ZN4Sass8Prelexer11coefficientEPKc T
_ZN4Sass8Prelexer11end_of_fileEPKc T
_ZN4Sass8Prelexer11end_of_lineEPKc T
_ZN4Sass8Prelexer11exact_matchEPKc T
_ZN4Sass8Prelexer11global_flagEPKc T
_ZN4Sass8Prelexer11ie_propertyEPKc T
_ZN4Sass8Prelexer11interpolantEPKc T
_ZN4Sass8Prelexer11kwd_at_rootEPKc T
_ZN4Sass8Prelexer11kwd_throughEPKc T
_ZN4Sass8Prelexer11placeholderEPKc T
_ZN4Sass8Prelexer11unicode_seqEPKc T
_ZN4Sass8Prelexer12alternativesIXadL_ZNS0_10class_charIXadL_ZNS_9Constants14real_uri_charsEEEEEPKcS5_EEXadL_ZNS0_13uri_characterES5_EEJXadL_ZNS0_8NONASCIIES5_EEXadL_ZNS0_6ESCAPEES5_EEEEES5_S5_ W
_ZN4Sass8Prelexer12alternativesIXadL_ZNS0_10class_charIXadL_ZNS_9Constants20selector_list_delimsEEEEEPKcS5_EEEES5_S5_ W
_ZN4Sass8Prelexer12alternativesIXadL_ZNS0_10identifierEPKcEEXadL_ZNS0_7exactlyILc42EEES3_S3_EEJXadL_ZNS0_7exactlyIXadL_ZNS_9Constants8warn_kwdEEEEES3_S3_EEXadL_ZNS5_IXadL_ZNS6_9error_kwdEEEEES3_S3_EEXadL_ZNS5_IXadL_ZNS6_9debug_kwdEEEEES3_S3_EEEEES3_S3_ W
_ZN4Sass8Prelexer12alternativesIXadL_ZNS0_10identifierEPKcEEXadL_ZNS0_8variableES3_EEJXadL_ZNS0_10percentageES3_EEXadL_ZNS0_8binomialES3_EEXadL_ZNS0_9dimensionES3_EEXadL_ZNS0_5alnumES3_EEEEES3_S3_ W
_ZN4Sass8Prelexer12alternativesIXadL_ZNS0_11end_of_fileEPKcEEXadL_ZNS0_7exactlyILc123EEES3_S3_EEJEEES3_S3_ W
_ZN4Sass8Prelexer12alternativesIXadL_ZNS0_11end_of_fileEPKcEEXadL_ZNS0_7exactlyILc123EEES3_S3_EEJXadL_ZNS4_ILc44EEES3_S3_EEEEES3_S3_ W
_ZN4Sass8Prelexer12alternativesIXadL_ZNS0_11exact_matchEPKcEEXadL_ZNS0_11class_matchES3_EEJXadL_ZNS0_10dash_matchES3_EEXadL_ZNS0_12prefix_matchES3_EEXadL_ZNS0_12suffix_matchES3_EEXadL_ZNS0_15substring_matchES3_EEEEES3_S3_ W
_ZN4Sass8Prelexer12alternativesIXadL_ZNS0_12default_flagEPKcEEXadL_ZNS0_11global_flagES3_EEJEEES3_S3_ W
_ZN4Sass8Prelexer12alternativesIXadL_ZNS0_12line_commentEPKcEEXadL_ZNS0_13block_commentES3_EEJXadL_ZNS0_12delimited_byIXadL_ZNS_9Constants10slash_starEEEXadL_ZNS5_10star_slashEEELb0EEES3_S3_EEEEES3_S3_ W
_ZN4Sass8Prelexer12alternativesIXadL_ZNS0_13quoted_stringEPKcEEXadL_ZNS0_6numberES3_EEJXadL_ZNS0_3hexES3_EEXadL_ZNS0_4hexaES3_EEXadL_ZNS0_8sequenceIXadL_ZNS0_7exactlyILc40EEES3_S3_EEXadL_ZNS0_16skip_over_scopesIXadL_ZNS5_ILc40EEES3_S3_EEXadL_ZNS5_ILc41EEES3_S3_EEEES3_S3_EEJEEES3_S3_EEEEES3_S3_ W
_ZN4Sass8Prelexer12alternativesIXadL_ZNS0_17identifier_schemaEPKcEEXadL_ZNS0_10identifierES3_EEJEEES3_S3_ W
_ZN4Sass8Prelexer12alternativesIXadL_ZNS0_18kwd_with_directiveEPKcEEXadL_ZNS0_21kwd_without_directiveES3_EEJEEES3_S3_ W
_ZN4Sass8Prelexer12alternativesIXadL_ZNS0_23strict_identifier_alnumEPKcEEXadL_ZNS0_8sequenceIXadL_ZNS0_8one_plusIXadL_ZNS0_7exactlyILc45EEES3_S3_EEEES3_S3_EEXadL_ZNS0_23strict_identifier_alphaES3_EEJEEES3_S3_EEJEEES3_S3_ W
_ZN4Sass8Prelexer12alternativesIXadL_ZNS0_3hexEPKcEEXadL_ZNS0_4hex0ES3_EEJEEES3_S3_ W
_ZN4Sass8Prelexer12alternativesIXadL_ZNS0_4wordIXadL_ZNS_9Constants9while_kwdEEEEEPKcS5_EEXadL_ZNS2_IXadL_ZNS3_6if_kwdEEEEES5_S5_EEJXadL_ZNS2_IXadL_ZNS3_8else_kwdEEEEES5_S5_EEXadL_ZNS2_IXadL_ZNS3_10extend_kwdEEEEES5_S5_EEXadL_ZNS2_IXadL_ZNS3_10import_kwdEEEEES5_S5_EEXadL_ZNS2_IXadL_ZNS3_9media_kwdEEEEES5_S5_EEXadL_ZNS2_IXadL_ZNS3_11charset_kwdEEEEES5_S5_EEXadL_ZNS2_IXadL_ZNS3_11content_kwdEEEEES5_S5_EEXadL_ZNS2_IXadL_ZNS3_11at_root_kwdEEEEES5_S5_EEXadL_ZNS2_IXadL_ZNS3_9error_kwdEEEEES5_S5_EEEEES5_S5_ W
_ZN4Sass8Prelexer12alternativesIXadL_ZNS0_5alnumEPKcEEXadL_ZNS0_7exactlyILc45EEES3_S3_EEJXadL_ZNS4_ILc95EEES3_S3_EEXadL_ZNS0_10escape_seqES3_EEEEES3_S3_ W
_ZN4Sass8Prelexer12alternativesIXadL_ZNS0_5alphaEPKcEEEES3_S3_ W
_ZN4Sass8Prelexer12alternativesIXadL_ZNS0_5alphaEPKcEEXadL_ZNS0_7exactlyILc43EEES3_S3_EEJXadL_ZNS4_ILc45EEES3_S3_EEEEES3_S3_ W
_ZN4Sass8Prelexer12alternativesIXadL_ZNS0_5spaceEPKcEEXadL_ZNS0_7exactlyILc9EEES3_S3_EEJXadL_ZNS4_ILc13EEES3_S3_EEXadL_ZNS4_ILc10EEES3_S3_EEXadL_ZNS4_ILc12EEES3_S3_EEEEES3_S3_ W
_ZN4Sass8Prelexer12alternativesIXadL_ZNS0_5spaceEPKcEEXadL_ZNS0_8sequenceIXadL_ZNS0_7exactlyILc117EEES3_S3_EEXadL_ZNS5_ILc114EEES3_S3_EEJXadL_ZNS5_ILc108EEES3_S3_EEXadL_ZNS5_ILc40EEES3_S3_EEXadL_ZNS0_9zero_plusIXadL_ZNS1_IXadL_ZNS0_10class_charIXadL_ZNS_9Constants14real_uri_charsEEEEES3_S3_EEXadL_ZNS0_13uri_characterES3_EEJXadL_ZNS0_8NONASCIIES3_EEXadL_ZNS0_6ESCAPEES3_EEEEES3_S3_EEEES3_S3_EEXadL_ZNS5_ILc41EEES3_S3_EEEEES3_S3_EEJEEES3_S3_ W
_ZN4Sass8Prelexer12alternativesIXadL_ZNS0_6digitsEPKcEEXadL_ZNS0_8sequenceIXadL_ZNS0_8optionalIXadL_ZNS0_7exactlyILc36EEES3_S3_EEEES3_S3_EEXadL_ZNS0_10identifierES3_EEJEEES3_S3_EEJXadL_ZNS0_13quoted_stringES3_EEXadL_ZNS6_ILc45EEES3_S3_EEEEES3_S3_ W
_ZN4Sass8Prelexer12alternativesIXadL_ZNS0_6kwd_eqEPKcEEXadL_ZNS0_7kwd_neqES3_EEJXadL_ZNS0_7kwd_gteES3_EEXadL_ZNS0_6kwd_gtES3_EEXadL_ZNS0_7kwd_lteES3_EEXadL_ZNS0_6kwd_ltES3_EEEEES3_S3_ W
_ZN4Sass8Prelexer12alternativesIXadL_ZNS0_6spacesEPKcEEXadL_ZNS0_12line_commentES3_EEJEEES3_S3_ W
_ZN4Sass8Prelexer12alternativesIXadL_ZNS0_6spacesEPKcEEXadL_ZNS0_12line_commentES3_EEJXadL_ZNS0_13block_commentES3_EEEEES3_S3_ W
_ZN4Sass8Prelexer12alternativesIXadL_ZNS0_6spacesEPKcEEXadL_ZNS0_13block_commentES3_EEJEEES3_S3_ W
_ZN4Sass8Prelexer12alternativesIXadL_ZNS0_6spacesEPKcEEXadL_ZNS0_13block_commentES3_EEJXadL_ZNS0_12line_commentES3_EEXadL_ZNS0_27schema_reference_combinatorES3_EEXadL_ZNS0_10class_charIXadL_ZNS_9Constants22selector_lookahead_opsEEEEES3_S3_EEXadL_ZNS4_IXadL_ZNS5_23selector_combinator_opsEEEEES3_S3_EEXadL_ZNS0_8sequenceIXadL_ZNS0_7exactlyILc40EEES3_S3_EEXadL_ZNS0_15optional_spacesES3_EEJXadL_ZNS0_8optionalIXadL_ZNS0_16re_selector_listES3_EEEES3_S3_EEXadL_ZNS0_15optional_spacesES3_EEXadL_ZNS7_ILc41EEES3_S3_EEEEES3_S3_EEXadL_ZNS1_IXadL_ZNS0_11exact_matchES3_EEXadL_ZNS0_11class_matchES3_EEJXadL_ZNS0_10dash_matchES3_EEXadL_ZNS0_12prefix_matchES3_EEXadL_ZNS0_12suffix_matchES3_EEXadL_ZNS0_15substring_matchES3_EEEEES3_S3_EEXadL_ZNS6_IXadL_ZNS8_IXadL_ZNS0_16namespace_schemaES3_EEEES3_S3_EEXadL_ZNS1_IXadL_ZNS6_IXadL_ZNS7_ILc35EEES3_S3_EEXadL_ZNS0_6negateIXadL_ZNS7_ILc123EEES3_S3_EEEES3_S3_EEJEEES3_S3_EEXadL_ZNS7_ILc46EEES3_S3_EEJXadL_ZNS6_IXadL_ZNS8_IXadL_ZNS0_13pseudo_prefixES3_EEEES3_S3_EEXadL_ZNS9_IXadL_ZNS0_10uri_prefixES3_EEEES3_S3_EEJEEES3_S3_EEEEES3_S3_EEJXadL_ZNS0_8one_plusIXadL_ZNS6_IXadL_ZNS0_9zero_plusIXadL_ZNS6_IXadL_ZNS7_ILc45EEES3_S3_EEXadL_ZNS0_15optional_spacesES3_EEJEEES3_S3_EEEES3_S3_EEXadL_ZNS1_IXadL_ZNS0_12kwd_optionalES3_EEXadL_ZNS7_ILc42EEES3_S3_EEJXadL_ZNS0_13quoted_stringES3_EEXadL_ZNS0_11interpolantES3_EEXadL_ZNS0_10identifierES3_EEXadL_ZNS0_8variableES3_EEXadL_ZNS0_10percentageES3_EEXadL_ZNS0_8binomialES3_EEXadL_ZNS0_9dimensionES3_EEXadL_ZNS0_5alnumES3_EEEEES3_S3_EEJEEES3_S3_EEEES3_S3_EEXadL_ZNSB_IXadL_ZNS7_ILc45EEES3_S3_EEEES3_S3_EEEEES3_S3_EEEEES3_S3_ W
_ZN4Sass8Prelexer12alternativesIXadL_ZNS0_7exactlyILc37EEEPKcS4_EEXadL_ZNS2_ILc45EEES4_S4_EEJXadL_ZNS2_ILc43EEES4_S4_EEEEES4_S4_ W
_ZN4Sass8Prelexer12alternativesIXadL_ZNS0_7exactlyILc40EEEPKcS4_EEXadL_ZNS2_ILc91EEES4_S4_EEJXadL_ZNS2_ILc123EEES4_S4_EEEEES4_S4_ W
_ZN4Sass8Prelexer12alternativesIXadL_ZNS0_7exactlyILc41EEEPKcS4_EEXadL_ZNS2_ILc93EEES4_S4_EEJXadL_ZNS2_ILc125EEES4_S4_EEEEES4_S4_ W
_ZN4Sass8Prelexer12alternativesIXadL_ZNS0_7exactlyILc44EEEPKcS4_EEXadL_ZNS2_ILc123EEES4_S4_EEJXadL_ZNS2_ILc59EEES4_S4_EEEEES4_S4_ W
_ZN4Sass8Prelexer12alternativesIXadL_ZNS0_7exactlyILc59EEEPKcS4_EEXadL_ZNS0_11end_of_fileES4_EEJEEES4_S4_ W
_ZN4Sass8Prelexer12alternativesIXadL_ZNS0_7exactlyILc59EEEPKcS4_EEXadL_ZNS2_ILc125EEES4_S4_EEJXadL_ZNS0_11end_of_fileES4_EEEEES4_S4_ W
_ZN4Sass8Prelexer12alternativesIXadL_ZNS0_7exactlyIXadL_ZNS_9Constants8warn_kwdEEEEEPKcS5_EEXadL_ZNS2_IXadL_ZNS3_9error_kwdEEEEES5_S5_EEJXadL_ZNS2_IXadL_ZNS3_9debug_kwdEEEEES5_S5_EEEEES5_S5_ W
_ZN4Sass8Prelexer12alternativesIXadL_ZNS0_8nonasciiEPKcEEXadL_ZNS0_10escape_seqES3_EEJXadL_ZNS0_7exactlyILc95EEES3_S3_EEEEES3_S3_ W
_ZN4Sass8Prelexer12alternativesIXadL_ZNS0_8nonasciiEPKcEEXadL_ZNS0_7exactlyILc45EEES3_S3_EEJXadL_ZNS4_ILc95EEES3_S3_EEXadL_ZNS0_8NONASCIIES3_EEXadL_ZNS0_6ESCAPEES3_EEXadL_ZNS0_10escape_seqES3_EEEEES3_S3_ W
_ZN4Sass8Prelexer12alternativesIXadL_ZNS0_8sequenceIXadL_ZNS0_6negateIXadL_ZNS0_10uri_prefixEPKcEEEES5_S5_EEXadL_ZNS0_14neg_class_charIXadL_ZNS_9Constants22almost_any_value_classEEEEES5_S5_EEJEEES5_S5_EEXadL_ZNS2_IXadL_ZNS0_7exactlyILc47EEES5_S5_EEXadL_ZNS3_IXadL_ZNS1_IXadL_ZNS8_ILc47EEES5_S5_EEXadL_ZNS8_ILc42EEES5_S5_EEJEEES5_S5_EEEES5_S5_EEJEEES5_S5_EEJXadL_ZNS2_IXadL_ZNS8_ILc92EEES5_S5_EEXadL_ZNS8_ILc35EEES5_S5_EEJXadL_ZNS3_IXadL_ZNS8_ILc123EEES5_S5_EEEES5_S5_EEEEES5_S5_EEXadL_ZNS2_IXadL_ZNS8_ILc33EEES5_S5_EEXadL_ZNS3_IXadL_ZNS0_5alphaES5_EEEES5_S5_EEJEEES5_S5_EEEEES5_S5_ W
_ZN4Sass8Prelexer12alternativesIXadL_ZNS0_8sequenceIXadL_ZNS0_6negateIXadL_ZNS2_IXadL_ZNS0_7exactlyIXadL_ZNS_9Constants7url_kwdEEEEEPKcS7_EEXadL_ZNS0_7exactlyILc40EEES7_S7_EEJEEES7_S7_EEEES7_S7_EEXadL_ZNS0_14neg_class_charIXadL_ZNS5_22almost_any_value_classEEEEES7_S7_EEJEEES7_S7_EEXadL_ZNS2_IXadL_ZNS8_ILc47EEES7_S7_EEXadL_ZNS3_IXadL_ZNS1_IXadL_ZNS8_ILc47EEES7_S7_EEXadL_ZNS8_ILc42EEES7_S7_EEJEEES7_S7_EEEES7_S7_EEJEEES7_S7_EEJXadL_ZNS2_IXadL_ZNS8_ILc92EEES7_S7_EEXadL_ZNS8_ILc35EEES7_S7_EEJXadL_ZNS3_IXadL_ZNS8_ILc123EEES7_S7_EEEES7_S7_EEEEES7_S7_EEXadL_ZNS2_IXadL_ZNS8_ILc33EEES7_S7_EEXadL_ZNS3_IXadL_ZNS0_5alphaES7_EEEES7_S7_EEJEEES7_S7_EEEEES7_S7_ W
_ZN4Sass8Prelexer12alternativesIXadL_ZNS0_8sequenceIXadL_ZNS0_7exactlyILc35EEEPKcS5_EEXadL_ZNS0_6negateIXadL_ZNS3_ILc123EEES5_S5_EEEES5_S5_EEJEEES5_S5_EEXadL_ZNS2_IXadL_ZNS3_ILc47EEES5_S5_EEXadL_ZNS6_IXadL_ZNS3_ILc42EEES5_S5_EEEES5_S5_EEJEEES5_S5_EEJXadL_ZNS0_13static_stringES5_EEXadL_ZNS0_8real_uriES5_EEXadL_ZNS0_13block_commentES5_EEEEES5_S5_ W
_ZN4Sass8Prelexer12alternativesIXadL_ZNS0_8sequenceIXadL_ZNS0_7exactlyILc40EEEPKcS5_EEXadL_ZNS0_15optional_spacesES5_EEJXadL_ZNS0_8optionalIXadL_ZNS0_16re_selector_listES5_EEEES5_S5_EEXadL_ZNS0_15optional_spacesES5_EEXadL_ZNS3_ILc41EEES5_S5_EEEEES5_S5_EEXadL_ZNS1_IXadL_ZNS0_11exact_matchES5_EEXadL_ZNS0_11class_matchES5_EEJXadL_ZNS0_10dash_matchES5_EEXadL_ZNS0_12prefix_matchES5_EEXadL_ZNS0_12suffix_matchES5_EEXadL_ZNS0_15substring_matchES5_EEEEES5_S5_EEJXadL_ZNS2_IXadL_ZNS6_IXadL_ZNS0_16namespace_schemaES5_EEEES5_S5_EEXadL_ZNS1_IXadL_ZNS2_IXadL_ZNS3_ILc35EEES5_S5_EEXadL_ZNS0_6negateIXadL_ZNS3_ILc123EEES5_S5_EEEES5_S5_EEJEEES5_S5_EEXadL_ZNS3_ILc46EEES5_S5_EEJXadL_ZNS2_IXadL_ZNS6_IXadL_ZNS0_13pseudo_prefixES5_EEEES5_S5_EEXadL_ZNS7_IXadL_ZNS0_10uri_prefixES5_EEEES5_S5_EEJEEES5_S5_EEEEES5_S5_EEJXadL_ZNS0_8one_plusIXadL_ZNS2_IXadL_ZNS0_9zero_plusIXadL_ZNS2_IXadL_ZNS3_ILc45EEES5_S5_EEXadL_ZNS0_15optional_spacesES5_EEJEEES5_S5_EEEES5_S5_EEXadL_ZNS1_IXadL_ZNS0_12kwd_optionalES5_EEXadL_ZNS3_ILc42EEES5_S5_EEJXadL_ZNS0_13quoted_stringES5_EEXadL_ZNS0_11interpolantES5_EEXadL_ZNS0_10identifierES5_EEXadL_ZNS0_8variableES5_EEXadL_ZNS0_10percentageES5_EEXadL_ZNS0_8binomialES5_EEXadL_ZNS0_9dimensionES5_EEXadL_ZNS0_5alnumES5_EEEEES5_S5_EEJEEES5_S5_EEEES5_S5_EEXadL_ZNS9_IXadL_ZNS3_ILc45EEES5_S5_EEEES5_S5_EEEEES5_S5_EEEEES5_S5_ W
_ZN4Sass8Prelexer12alternativesIXadL_ZNS0_8sequenceIXadL_ZNS0_7exactlyILc92EEEPKcS5_EEXadL_ZNS0_12re_linebreakES5_EEJEEES5_S5_EEXadL_ZNS0_10escape_seqES5_EEJXadL_ZNS0_11unicode_seqES5_EEXadL_ZNS0_11interpolantES5_EEXadL_ZNS0_12any_char_butILc34EEES5_S5_EEEEES5_S5_ W
_ZN4Sass8Prelexer12alternativesIXadL_ZNS0_8sequenceIXadL_ZNS0_7exactlyILc92EEEPKcS5_EEXadL_ZNS0_12re_linebreakES5_EEJEEES5_S5_EEXadL_ZNS0_10escape_seqES5_EEJXadL_ZNS0_11unicode_seqES5_EEXadL_ZNS0_11interpolantES5_EEXadL_ZNS0_12any_char_butILc39EEES5_S5_EEEEES5_S5_ W
_ZN4Sass8Prelexer12alternativesIXadL_ZNS0_8sequenceIXadL_ZNS0_7exactlyILc92EEEPKcS5_EEXadL_ZNS0_8any_charES5_EEJEEES5_S5_EEXadL_ZNS2_IXadL_ZNS0_6negateIXadL_ZNS0_10uri_prefixES5_EEEES5_S5_EEXadL_ZNS0_14neg_class_charIXadL_ZNS_9Constants22almost_any_value_classEEEEES5_S5_EEJEEES5_S5_EEJXadL_ZNS2_IXadL_ZNS3_ILc47EEES5_S5_EEXadL_ZNS6_IXadL_ZNS1_IXadL_ZNS3_ILc47EEES5_S5_EEXadL_ZNS3_ILc42EEES5_S5_EEJEEES5_S5_EEEES5_S5_EEJEEES5_S5_EEXadL_ZNS2_IXadL_ZNS3_ILc92EEES5_S5_EEXadL_ZNS3_ILc35EEES5_S5_EEJXadL_ZNS6_IXadL_ZNS3_ILc123EEES5_S5_EEEES5_S5_EEEEES5_S5_EEXadL_ZNS2_IXadL_ZNS3_ILc33EEES5_S5_EEXadL_ZNS6_IXadL_ZNS0_5alphaES5_EEEES5_S5_EEJEEES5_S5_EEEEES5_S5_ W
_ZN4Sass8Prelexer12alternativesIXadL_ZNS0_8sequenceIXadL_ZNS0_7exactlyILc92EEEPKcS5_EEXadL_ZNS0_8any_charES5_EEJEEES5_S5_EEXadL_ZNS2_IXadL_ZNS0_6negateIXadL_ZNS2_IXadL_ZNS0_7exactlyIXadL_ZNS_9Constants7url_kwdEEEEES5_S5_EEXadL_ZNS3_ILc40EEES5_S5_EEJEEES5_S5_EEEES5_S5_EEXadL_ZNS0_14neg_class_charIXadL_ZNS8_22almost_any_value_classEEEEES5_S5_EEJEEES5_S5_EEJXadL_ZNS2_IXadL_ZNS3_ILc47EEES5_S5_EEXadL_ZNS6_IXadL_ZNS1_IXadL_ZNS3_ILc47EEES5_S5_EEXadL_ZNS3_ILc42EEES5_S5_EEJEEES5_S5_EEEES5_S5_EEJEEES5_S5_EEXadL_ZNS2_IXadL_ZNS3_ILc92EEES5_S5_EEXadL_ZNS3_ILc35EEES5_S5_EEJXadL_ZNS6_IXadL_ZNS3_ILc123EEES5_S5_EEEES5_S5_EEEEES5_S5_EEXadL_ZNS2_IXadL_ZNS3_ILc33EEES5_S5_EEXadL_ZNS6_IXadL_ZNS0_5alphaES5_EEEES5_S5_EEJEEES5_S5_EEEEES5_S5_ W
_ZN4Sass8Prelexer12alternativesIXadL_ZNS0_8sequenceIXadL_ZNS0_7exactlyILc92EEEPKcS5_EEXadL_ZNS0_8any_charES5_EEJEEES5_S5_EEXadL_ZNS2_IXadL_ZNS3_ILc35EEES5_S5_EEXadL_ZNS0_6negateIXadL_ZNS3_ILc123EEES5_S5_EEEES5_S5_EEJEEES5_S5_EEJXadL_ZNS0_14neg_class_charIXadL_ZNS0_21string_double_negatesEEEEES5_S5_EEEEES5_S5_ W
_ZN4Sass8Prelexer12alternativesIXadL_ZNS0_8sequenceIXadL_ZNS0_7exactlyILc92EEEPKcS5_EEXadL_ZNS0_8any_charES5_EEJEEES5_S5_EEXadL_ZNS2_IXadL_ZNS3_ILc35EEES5_S5_EEXadL_ZNS0_6negateIXadL_ZNS3_ILc123EEES5_S5_EEEES5_S5_EEJEEES5_S5_EEJXadL_ZNS0_14neg_class_charIXadL_ZNS0_21string_single_negatesEEEEES5_S5_EEEEES5_S5_ W
_ZN4Sass8Prelexer12alternativesIXadL_ZNS0_8sequenceIXadL_ZNS0_8optionalIXadL_ZNS0_7exactlyILc36EEEPKcS6_EEEES6_S6_EEXadL_ZNS0_10identifierES6_EEJEEES6_S6_EEXadL_ZNS4_ILc45EEES6_S6_EEJEEES6_S6_ W
_ZN4Sass8Prelexer12alternativesIXadL_ZNS0_8sequenceIXadL_ZNS0_9ampersandEPKcEEXadL_ZNS0_8one_plusIXadL_ZNS0_7exactlyILc45EEES4_S4_EEEES4_S4_EEJXadL_ZNS0_13word_boundaryES4_EEXadL_ZNS0_15optional_spacesES4_EEEEES4_S4_EEXadL_ZNS5_IXadL_ZNS1_IXadL_ZNS0_6spacesES4_EEXadL_ZNS0_13block_commentES4_EEJXadL_ZNS0_12line_commentES4_EEXadL_ZNS0_27schema_reference_combinatorES4_EEXadL_ZNS0_10class_charIXadL_ZNS_9Constants22selector_lookahead_opsEEEEES4_S4_EEXadL_ZNS7_IXadL_ZNS8_23selector_combinator_opsEEEEES4_S4_EEXadL_ZNS2_IXadL_ZNS6_ILc40EEES4_S4_EEXadL_ZNS0_15optional_spacesES4_EEJXadL_ZNS0_8optionalIXadL_ZNS0_16re_selector_listES4_EEEES4_S4_EEXadL_ZNS0_15optional_spacesES4_EEXadL_ZNS6_ILc41EEES4_S4_EEEEES4_S4_EEXadL_ZNS1_IXadL_ZNS0_11exact_matchES4_EEXadL_ZNS0_11class_matchES4_EEJXadL_ZNS0_10dash_matchES4_EEXadL_ZNS0_12prefix_matchES4_EEXadL_ZNS0_12suffix_matchES4_EEXadL_ZNS0_15substring_matchES4_EEEEES4_S4_EEXadL_ZNS2_IXadL_ZNS9_IXadL_ZNS0_16namespace_schemaES4_EEEES4_S4_EEXadL_ZNS1_IXadL_ZNS2_IXadL_ZNS6_ILc35EEES4_S4_EEXadL_ZNS0_6negateIXadL_ZNS6_ILc123EEES4_S4_EEEES4_S4_EEJEEES4_S4_EEXadL_ZNS6_ILc46EEES4_S4_EEJXadL_ZNS2_IXadL_ZNS9_IXadL_ZNS0_13pseudo_prefixES4_EEEES4_S4_EEXadL_ZNSA_IXadL_ZNS0_10uri_prefixES4_EEEES4_S4_EEJEEES4_S4_EEEEES4_S4_EEJXadL_ZNS5_IXadL_ZNS2_IXadL_ZNS0_9zero_plusIXadL_ZNS2_IXadL_ZNS6_ILc45EEES4_S4_EEXadL_ZNS0_15optional_spacesES4_EEJEEES4_S4_EEEES4_S4_EEXadL_ZNS1_IXadL_ZNS0_12kwd_optionalES4_EEXadL_ZNS6_ILc42EEES4_S4_EEJXadL_ZNS0_13quoted_stringES4_EEXadL_ZNS0_11interpolantES4_EEXadL_ZNS0_10identifierES4_EEXadL_ZNS0_8variableES4_EEXadL_ZNS0_10percentageES4_EEXadL_ZNS0_8binomialES4_EEXadL_ZNS0_9dimensionES4_EEXadL_ZNS0_5alnumES4_EEEEES4_S4_EEJEEES4_S4_EEEES4_S4_EEXadL_ZNSB_IXadL_ZNS6_ILc45EEES4_S4_EEEES4_S4_EEEEES4_S4_EEEEES4_S4_EEEES4_S4_EEJEEES4_S4_ W
_ZN4Sass8Prelexer12alternativesIXadL_ZNS0_8variableEPKcEEXadL_ZNS0_17identifier_schemaES3_EEJXadL_ZNS0_10identifierES3_EEEEES3_S3_ W
_ZN4Sass8Prelexer12alternativesIXadL_ZNS0_8variableEPKcEEXadL_ZNS0_17identifier_schemaES3_EEJXadL_ZNS0_10identifierES3_EEXadL_ZNS0_13quoted_stringES3_EEXadL_ZNS0_6numberES3_EEXadL_ZNS0_3hexES3_EEXadL_ZNS0_4hexaES3_EEEEES3_S3_ W
_ZN4Sass8Prelexer12alternativesIXadL_ZNS0_8variableEPKcEEXadL_ZNS0_6numberES3_EEJXadL_ZNS0_27static_reference_combinatorES3_EEEEES3_S3_ W
_ZN4Sass8Prelexer12alternativesIXadL_ZNS0_9dimensionEPKcEEXadL_ZNS0_6numberES3_EEJEEES3_S3_ W
_ZN4Sass8Prelexer12calc_fn_callEPKc T
_ZN4Sass8Prelexer12css_commentsEPKc T
_ZN4Sass8Prelexer12default_flagEPKc T
_ZN4Sass8Prelexer12delimited_byIXadL_ZNS_9Constants10slash_starEEEXadL_ZNS2_10star_slashEEELb0EEEPKcS4_ W
_ZN4Sass8Prelexer12is_characterEc T
_ZN4Sass8Prelexer12kwd_functionEPKc T
_ZN4Sass8Prelexer12kwd_optionalEPKc T
_ZN4Sass8Prelexer12line_commentEPKc T
_ZN4Sass8Prelexer12prefix_matchEPKc T
_ZN4Sass8Prelexer12re_linebreakEPKc T
_ZN4Sass8Prelexer12static_valueEPKc T
_ZN4Sass8Prelexer12suffix_matchEPKc T
_ZN4Sass8Prelexer12value_schemaEPKc T
_ZN4Sass8Prelexer13block_commentEPKc T
_ZN4Sass8Prelexer13ie_expressionEPKc T
_ZN4Sass8Prelexer13kwd_importantEPKc T
_ZN4Sass8Prelexer13number_prefixEPKc T
_ZN4Sass8Prelexer13pseudo_prefixEPKc T
_ZN4Sass8Prelexer13quoted_stringEPKc T
_ZN4Sass8Prelexer13re_functionalEPKc T
_ZN4Sass8Prelexer13static_stringEPKc T
_ZN4Sass8Prelexer13type_selectorEPKc T
_ZN4Sass8Prelexer13uri_characterEPKc T
_ZN4Sass8Prelexer13word_boundaryEPKc T
_ZN4Sass8Prelexer14attribute_nameEPKc T
_ZN4Sass8Prelexer14css_identifierEPKc T
_ZN4Sass8Prelexer14css_whitespaceEPKc T
_ZN4Sass8Prelexer14ie_keyword_argEPKc T
_ZN4Sass8Prelexer14multiple_unitsEPKc T
_ZN4Sass8Prelexer14real_uri_valueEPKc T
_ZN4Sass8Prelexer14re_special_funEPKc T
_ZN4Sass8Prelexer15list_terminatorEPKc T
_ZN4Sass8Prelexer15optional_spacesEPKc T
_ZN4Sass8Prelexer15real_uri_suffixEPKc T
_ZN4Sass8Prelexer15static_propertyEPKc T
_ZN4Sass8Prelexer15substring_matchEPKc T
_ZN4Sass8Prelexer15unit_identifierEPKc T
_ZN4Sass8Prelexer15unsigned_numberEPKc T
_ZN4Sass8Prelexer16elseif_directiveEPKc T
_ZN4Sass8Prelexer16hyphens_and_nameEPKc T
_ZN4Sass8Prelexer16identifier_alnumEPKc T
_ZN4Sass8Prelexer16identifier_alphaEPKc T
_ZN4Sass8Prelexer16is_uri_characterEc T
_ZN4Sass8Prelexer16kwd_if_directiveEPKc T
_ZN4Sass8Prelexer16namespace_prefixEPKc T
_ZN4Sass8Prelexer16namespace_schemaEPKc T
_ZN4Sass8Prelexer16parenthese_scopeEPKc T
_ZN4Sass8Prelexer16re_selector_listEPKc T
_ZN4Sass8Prelexer16re_type_selectorEPKc T
_ZN4Sass8Prelexer16skip_over_scopesIXadL_ZNS0_7exactlyILc40EEEPKcS4_EEXadL_ZNS2_ILc41EEES4_S4_EEEES4_S4_ W
_ZN4Sass8Prelexer16skip_over_scopesIXadL_ZNS0_7exactlyILc40EEEPKcS4_EEXadL_ZNS2_ILc41EEES4_S4_EEEES4_S4_S4_ W
_ZN4Sass8Prelexer16skip_over_scopesIXadL_ZNS0_7exactlyIXadL_ZNS_9Constants11hash_lbraceEEEEEPKcS5_EEXadL_ZNS2_IXadL_ZNS3_6rbraceEEEEES5_S5_EEEES5_S5_S5_ W
_ZN4Sass8Prelexer16static_componentEPKc T
_ZN4Sass8Prelexer17css_ip_identifierEPKc T
_ZN4Sass8Prelexer17functional_schemaEPKc T
_ZN4Sass8Prelexer17identifier_alnumsEPKc T
_ZN4Sass8Prelexer17identifier_schemaEPKc T
_ZN4Sass8Prelexer17kwd_for_directiveEPKc T
_ZN4Sass8Prelexer17strict_identifierEPKc T
_ZN4Sass8Prelexer18css_variable_valueEPKc T
_ZN4Sass8Prelexer18kwd_each_directiveEPKc T
_ZN4Sass8Prelexer18kwd_else_directiveEPKc T
_ZN4Sass8Prelexer18kwd_with_directiveEPKc T
_ZN4Sass8Prelexer18re_pseudo_selectorEPKc T
_ZN4Sass8Prelexer18re_string_uri_openEPKc T
_ZN4Sass8Prelexer18value_combinationsEPKc T
_ZN4Sass8Prelexer19escapable_characterEPKc T
_ZN4Sass8Prelexer19kwd_while_directiveEPKc T
_ZN4Sass8Prelexer19re_string_uri_closeEPKc T
_ZN4Sass8Prelexer1HEPKc T
_ZN4Sass8Prelexer1WEPKc T
_ZN4Sass8Prelexer20double_quoted_stringEPKc T
_ZN4Sass8Prelexer20ie_keyword_arg_valueEPKc T
_ZN4Sass8Prelexer20kwd_return_directiveEPKc T
_ZN4Sass8Prelexer20re_special_directiveEPKc T
_ZN4Sass8Prelexer20re_static_expressionEPKc T
_ZN4Sass8Prelexer20single_quoted_stringEPKc T
_ZN4Sass8Prelexer21kwd_charset_directiveEPKc T
_ZN4Sass8Prelexer21kwd_content_directiveEPKc T
_ZN4Sass8Prelexer21kwd_include_directiveEPKc T
_ZN4Sass8Prelexer21kwd_without_directiveEPKc T
_ZN4Sass8Prelexer21optional_css_commentsEPKc T
_ZN4Sass8Prelexer21re_prefixed_directiveEPKc T
_ZN4Sass8Prelexer21re_string_double_openEPKc T
_ZN4Sass8Prelexer21re_string_single_openEPKc T
_ZN4Sass8Prelexer21space_list_terminatorEPKc T
_ZN4Sass8Prelexer21string_double_negatesE R
_ZN4Sass8Prelexer21string_single_negatesE R
_ZN4Sass8Prelexer22find_first_in_intervalIXadL_ZNS0_7exactlyIXadL_ZNS_9Constants11hash_lbraceEEEEEPKcS5_EEEES5_S5_S5_ W
_ZN4Sass8Prelexer22find_first_in_intervalIXadL_ZNS0_7exactlyIXadL_ZNS_9Constants11hash_lbraceEEEEEPKcS5_EEXadL_ZNS0_13block_commentES5_EEEES5_S5_S5_ W
_ZN4Sass8Prelexer22hyphens_and_identifierEPKc T
_ZN4Sass8Prelexer22is_escapable_characterEc T
_ZN4Sass8Prelexer22kwd_supports_directiveEPKc T
_ZN4Sass8Prelexer22re_string_double_closeEPKc T
_ZN4Sass8Prelexer22re_string_single_closeEPKc T
_ZN4Sass8Prelexer23ie_keyword_arg_propertyEPKc T
_ZN4Sass8Prelexer23optional_css_whitespaceEPKc T
_ZN4Sass8Prelexer23re_reference_combinatorEPKc T
_ZN4Sass8Prelexer23strict_identifier_alnumEPKc T
_ZN4Sass8Prelexer23strict_identifier_alphaEPKc T
_ZN4Sass8Prelexer24css_variable_url_negatesE R
_ZN4Sass8Prelexer25re_almost_any_value_tokenEPKc T
_ZN4Sass8Prelexer27schema_reference_combinatorEPKc T
_ZN4Sass8Prelexer27static_reference_combinatorEPKc T
_ZN4Sass8Prelexer28css_variable_top_level_valueEPKc T
_ZN4Sass8Prelexer2opEPKc T
_ZN4Sass8Prelexer34css_variable_url_top_level_negatesE R
_ZN4Sass8Prelexer3hexEPKc T
_ZN4Sass8Prelexer3oddEPKc T
_ZN4Sass8Prelexer4evenEPKc T
_ZN4Sass8Prelexer4hex0EPKc T
_ZN4Sass8Prelexer4hexaEPKc T
_ZN4Sass8Prelexer4nameEPKc T
_ZN4Sass8Prelexer4signEPKc T
_ZN4Sass8Prelexer5alnumEPKc T
_ZN4Sass8Prelexer5alphaEPKc T
_ZN4Sass8Prelexer5digitEPKc T
_ZN4Sass8Prelexer5spaceEPKc T
_ZN4Sass8Prelexer6digitsEPKc T
_ZN4Sass8Prelexer6ESCAPEEPKc T
_ZN4Sass8Prelexer6hyphenEPKc T
_ZN4Sass8Prelexer6kwd_atEPKc T
_ZN4Sass8Prelexer6kwd_eqEPKc T
_ZN4Sass8Prelexer6kwd_gtEPKc T
_ZN4Sass8Prelexer6kwd_inEPKc T
_ZN4Sass8Prelexer6kwd_ltEPKc T
_ZN4Sass8Prelexer6kwd_orEPKc T
_ZN4Sass8Prelexer6kwd_toEPKc T
_ZN4Sass8Prelexer6numberEPKc T
_ZN4Sass8Prelexer6spacesEPKc T
_ZN4Sass8Prelexer6xdigitEPKc T
_ZN4Sass8Prelexer7exactlyILc123EEEPKcS3_ W
_ZN4Sass8Prelexer7exactlyILc125EEEPKcS3_ W
_ZN4Sass8Prelexer7exactlyILc36EEEPKcS3_ W
_ZN4Sass8Prelexer7exactlyILc38EEEPKcS3_ W
_ZN4Sass8Prelexer7exactlyILc40EEEPKcS3_ W
_ZN4Sass8Prelexer7exactlyILc41EEEPKcS3_ W
_ZN4Sass8Prelexer7exactlyILc43EEEPKcS3_ W
_ZN4Sass8Prelexer7exactlyILc44EEEPKcS3_ W
_ZN4Sass8Prelexer7exactlyILc45EEEPKcS3_ W
_ZN4Sass8Prelexer7exactlyILc47EEEPKcS3_ W
_ZN4Sass8Prelexer7exactlyILc58EEEPKcS3_ W
_ZN4Sass8Prelexer7exactlyILc59EEEPKcS3_ W
_ZN4Sass8Prelexer7exactlyILc61EEEPKcS3_ W
_ZN4Sass8Prelexer7exactlyILc91EEEPKcS3_ W
_ZN4Sass8Prelexer7exactlyILc93EEEPKcS3_ W
_ZN4Sass8Prelexer7exactlyIXadL_ZNS_9Constants11hash_lbraceEEEEEPKcS4_ W
_ZN4Sass8Prelexer7exactlyIXadL_ZNS_9Constants25selector_combinator_childEEEEEPKcS4_ W
_ZN4Sass8Prelexer7exactlyIXadL_ZNS_9Constants27selector_combinator_generalEEEEEPKcS4_ W
_ZN4Sass8Prelexer7exactlyIXadL_ZNS_9Constants28selector_combinator_adjacentEEEEEPKcS4_ W
_ZN4Sass8Prelexer7exactlyIXadL_ZNS_9Constants6rbraceEEEEEPKcS4_ W
_ZN4Sass8Prelexer7exactlyIXadL_ZNS_9Constants8ellipsisEEEEEPKcS4_ W
_ZN4Sass8Prelexer7exactlyIXadL_ZNS_9Constants8else_kwdEEEEEPKcS4_ W
_ZN4Sass8Prelexer7hyphensEPKc T
_ZN4Sass8Prelexer7id_nameEPKc T
_ZN4Sass8Prelexer7kwd_andEPKc T
_ZN4Sass8Prelexer7kwd_dbgEPKc T
_ZN4Sass8Prelexer7kwd_dotEPKc T
_ZN4Sass8Prelexer7kwd_errEPKc T
_ZN4Sass8Prelexer7kwd_gteEPKc T
_ZN4Sass8Prelexer7kwd_lteEPKc T
_ZN4Sass8Prelexer7kwd_neqEPKc T
_ZN4Sass8Prelexer7kwd_notEPKc T
_ZN4Sass8Prelexer8any_charEPKc T
_ZN4Sass8Prelexer8binomialEPKc T
_ZN4Sass8Prelexer8kwd_fromEPKc T
_ZN4Sass8Prelexer8kwd_nullEPKc T
_ZN4Sass8Prelexer8kwd_onlyEPKc T
_ZN4Sass8Prelexer8kwd_plusEPKc T
_ZN4Sass8Prelexer8kwd_starEPKc T
_ZN4Sass8Prelexer8kwd_trueEPKc T
_ZN4Sass8Prelexer8kwd_warnEPKc T
_ZN4Sass8Prelexer8nonasciiEPKc T
_ZN4Sass8Prelexer8NONASCIIEPKc T
_ZN4Sass8Prelexer8one_plusIXadL_ZNS0_12alternativesIXadL_ZNS0_7exactlyILc62EEEPKcS5_EEXadL_ZNS0_8sequenceIXadL_ZNS3_ILc92EEES5_S5_EEXadL_ZNS0_8any_charES5_EEJEEES5_S5_EEJXadL_ZNS6_IXadL_ZNS0_6negateIXadL_ZNS6_IXadL_ZNS0_7exactlyIXadL_ZNS_9Constants7url_kwdEEEEES5_S5_EEXadL_ZNS3_ILc40EEES5_S5_EEJEEES5_S5_EEEES5_S5_EEXadL_ZNS0_14neg_class_charIXadL_ZNS9_22almost_any_value_classEEEEES5_S5_EEJEEES5_S5_EEXadL_ZNS6_IXadL_ZNS3_ILc47EEES5_S5_EEXadL_ZNS7_IXadL_ZNS2_IXadL_ZNS3_ILc47EEES5_S5_EEXadL_ZNS3_ILc42EEES5_S5_EEJEEES5_S5_EEEES5_S5_EEJEEES5_S5_EEXadL_ZNS6_IXadL_ZNS3_ILc92EEES5_S5_EEXadL_ZNS3_ILc35EEES5_S5_EEJXadL_ZNS7_IXadL_ZNS3_ILc123EEES5_S5_EEEES5_S5_EEEEES5_S5_EEXadL_ZNS6_IXadL_ZNS3_ILc33EEES5_S5_EEXadL_ZNS7_IXadL_ZNS0_5alphaES5_EEEES5_S5_EEJEEES5_S5_EEEEES5_S5_EEEES5_S5_ W
_ZN4Sass8Prelexer8one_plusIXadL_ZNS0_5alphaEPKcEEEES3_S3_ W
_ZN4Sass8Prelexer8one_plusIXadL_ZNS0_6xdigitEPKcEEEES3_S3_ W
_ZN4Sass8Prelexer8one_plusIXadL_ZNS0_7exactlyILc58EEEPKcS4_EEEES4_S4_ W
_ZN4Sass8Prelexer8one_unitEPKc T
_ZN4Sass8Prelexer8real_uriEPKc T
_ZN4Sass8Prelexer8sequenceIXadL_ZNS0_10identifierEPKcEEXadL_ZNS0_8optionalIXadL_ZNS0_13block_commentES3_EEEES3_S3_EEJXadL_ZNS0_7exactlyILc40EEES3_S3_EEEEES3_S3_ W
_ZN4Sass8Prelexer8sequenceIXadL_ZNS0_10identifierEPKcEEXadL_ZNS0_9zero_plusIXadL_ZNS0_13block_commentES3_EEEES3_S3_EEJEEES3_S3_ W
_ZN4Sass8Prelexer8sequenceIXadL_ZNS0_10percentageEPKcEEXadL_ZNS0_9lookaheadIXadL_ZNS0_6numberES3_EEEES3_S3_EEJEEES3_S3_ W
_ZN4Sass8Prelexer8sequenceIXadL_ZNS0_10uri_prefixEPKcEEXadL_ZNS0_1WES3_EEJXadL_ZNS0_14real_uri_valueES3_EEEEES3_S3_ W
_ZN4Sass8Prelexer8sequenceIXadL_ZNS0_11interpolantEPKcEEXadL_ZNS0_12alternativesIXadL_ZNS0_6digitsES3_EEXadL_ZNS0_10identifierES3_EEJXadL_ZNS0_7exactlyILc43EEES3_S3_EEXadL_ZNS5_ILc45EEES3_S3_EEEEES3_S3_EEJEEES3_S3_ W
_ZN4Sass8Prelexer8sequenceIXadL_ZNS0_11interpolantEPKcEEXadL_ZNS0_8optionalIXadL_ZNS0_13quoted_stringES3_EEEES3_S3_EEJEEES3_S3_ W
_ZN4Sass8Prelexer8sequenceIXadL_ZNS0_12alternativesIXadL_ZNS0_3hexEPKcEEXadL_ZNS0_4hex0ES4_EEJEEES4_S4_EEXadL_ZNS0_6negateIXadL_ZNS0_7exactlyILc45EEES4_S4_EEEES4_S4_EEJEEES4_S4_ W
_ZN4Sass8Prelexer8sequenceIXadL_ZNS0_12alternativesIXadL_ZNS1_IXadL_ZNS0_15optional_spacesEPKcEEXadL_ZNS2_IXadL_ZNS0_7exactlyILc47EEES4_S4_EEXadL_ZNS5_ILc44EEES4_S4_EEJXadL_ZNS5_ILc32EEES4_S4_EEEEES4_S4_EEJXadL_ZNS0_15optional_spacesES4_EEEEES4_S4_EEXadL_ZNS0_6spacesES4_EEJEEES4_S4_EEXadL_ZNS0_16static_componentES4_EEJEEES4_S4_ W
_ZN4Sass8Prelexer8sequenceIXadL_ZNS0_12calc_fn_callEPKcEEXadL_ZNS0_7exactlyILc40EEES3_S3_EEJEEES3_S3_ W
_ZN4Sass8Prelexer8sequenceIXadL_ZNS0_13quoted_stringEPKcEEXadL_ZNS0_15optional_spacesES3_EEJXadL_ZNS0_7exactlyILc59EEES3_S3_EEEEES3_S3_ W
_ZN4Sass8Prelexer8sequenceIXadL_ZNS0_13quoted_stringEPKcEEXadL_ZNS0_9lookaheadIXadL_ZNS0_7exactlyILc45EEES3_S3_EEEES3_S3_EEJEEES3_S3_ W
_ZN4Sass8Prelexer8sequenceIXadL_ZNS0_14css_whitespaceEPKcEEXadL_ZNS0_11insensitiveIXadL_ZNS_9Constants6of_kwdEEEEES3_S3_EEJEEES3_S3_ W
_ZN4Sass8Prelexer8sequenceIXadL_ZNS0_15optional_spacesEPKcEEXadL_ZNS0_7exactlyIXadL_ZNS_9Constants6rbraceEEEEES3_S3_EEJEEES3_S3_ W
_ZN4Sass8Prelexer8sequenceIXadL_ZNS0_16static_componentEPKcEEXadL_ZNS0_8one_plusIXadL_ZNS0_17strict_identifierES3_EEEES3_S3_EEJEEES3_S3_ W
_ZN4Sass8Prelexer8sequenceIXadL_ZNS0_17strict_identifierEPKcEEXadL_ZNS0_7hyphensES3_EEJEEES3_S3_ W
_ZN4Sass8Prelexer8sequenceIXadL_ZNS0_1WEPKcEEXadL_ZNS0_12alternativesIXadL_ZNS0_13quoted_stringES3_EEXadL_ZNS0_10non_greedyIXadL_ZNS4_IXadL_ZNS0_10class_charIXadL_ZNS_9Constants14real_uri_charsEEEEES3_S3_EEXadL_ZNS0_13uri_characterES3_EEJXadL_ZNS0_8NONASCIIES3_EEXadL_ZNS0_6ESCAPEES3_EEEEES3_S3_EEXadL_ZNS4_IXadL_ZNS1_IXadL_ZNS0_1WES3_EEXadL_ZNS0_7exactlyILc41EEES3_S3_EEJEEES3_S3_EEXadL_ZNS0_7exactlyIXadL_ZNS7_11hash_lbraceEEEEES3_S3_EEJEEES3_S3_EEEES3_S3_EEJEEES3_S3_EEJEEES3_S3_ W
_ZN4Sass8Prelexer8sequenceIXadL_ZNS0_21optional_css_commentsEPKcEEXadL_ZNS0_12alternativesIXadL_ZNS0_7exactlyILc44EEES3_S3_EEXadL_ZNS5_ILc40EEES3_S3_EEJXadL_ZNS5_ILc41EEES3_S3_EEXadL_ZNS0_12kwd_optionalES3_EEXadL_ZNS0_13quoted_stringES3_EEXadL_ZNS0_11interpolantES3_EEXadL_ZNS0_10identifierES3_EEXadL_ZNS0_10percentageES3_EEXadL_ZNS0_9dimensionES3_EEXadL_ZNS0_8variableES3_EEXadL_ZNS0_5alnumES3_EEXadL_ZNS1_IXadL_ZNS5_ILc92EEES3_S3_EEXadL_ZNS0_8any_charES3_EEJEEES3_S3_EEEEES3_S3_EEJEEES3_S3_ W
_ZN4Sass8Prelexer8sequenceIXadL_ZNS0_23optional_css_whitespaceEPKcEEXadL_ZNS0_4signES3_EEJXadL_ZNS0_23optional_css_whitespaceES3_EEXadL_ZNS0_6digitsES3_EEEEES3_S3_ W
_ZN4Sass8Prelexer8sequenceIXadL_ZNS0_23optional_css_whitespaceEPKcEEXadL_ZNS0_7exactlyILc44EEES3_S3_EEJXadL_ZNS0_23optional_css_whitespaceES3_EEXadL_ZNS1_IXadL_ZNS0_12alternativesIXadL_ZNS0_8variableES3_EEXadL_ZNS0_17identifier_schemaES3_EEJXadL_ZNS0_10identifierES3_EEEEES3_S3_EEXadL_ZNS0_23optional_css_whitespaceES3_EEJXadL_ZNS4_ILc61EEES3_S3_EEXadL_ZNS0_23optional_css_whitespaceES3_EEXadL_ZNS5_IXadL_ZNS0_8variableES3_EEXadL_ZNS0_17identifier_schemaES3_EEJXadL_ZNS0_10identifierES3_EEXadL_ZNS0_13quoted_stringES3_EEXadL_ZNS0_6numberES3_EEXadL_ZNS0_3hexES3_EEXadL_ZNS0_4hexaES3_EEEEES3_S3_EEEEES3_S3_EEEEES3_S3_ W
_ZN4Sass8Prelexer8sequenceIXadL_ZNS0_23optional_css_whitespaceEPKcEEXadL_ZNS0_8optionalIXadL_ZNS1_IXadL_ZNS0_12alternativesIXadL_ZNS0_8variableES3_EEXadL_ZNS0_17identifier_schemaES3_EEJXadL_ZNS0_10identifierES3_EEEEES3_S3_EEXadL_ZNS0_23optional_css_whitespaceES3_EEJXadL_ZNS0_7exactlyILc61EEES3_S3_EEXadL_ZNS0_23optional_css_whitespaceES3_EEXadL_ZNS5_IXadL_ZNS0_8variableES3_EEXadL_ZNS0_17identifier_schemaES3_EEJXadL_ZNS0_10identifierES3_EEXadL_ZNS0_13quoted_stringES3_EEXadL_ZNS0_6numberES3_EEXadL_ZNS0_3hexES3_EEXadL_ZNS0_4hexaES3_EEEEES3_S3_EEXadL_ZNS0_9zero_plusIXadL_ZNS1_IXadL_ZNS0_23optional_css_whitespaceES3_EEXadL_ZNS6_ILc44EEES3_S3_EEJXadL_ZNS0_23optional_css_whitespaceES3_EEXadL_ZNS1_IXadL_ZNS5_IXadL_ZNS0_8variableES3_EEXadL_ZNS0_17identifier_schemaES3_EEJXadL_ZNS0_10identifierES3_EEEEES3_S3_EEXadL_ZNS0_23optional_css_whitespaceES3_EEJXadL_ZNS6_ILc61EEES3_S3_EEXadL_ZNS0_23optional_css_whitespaceES3_EEXadL_ZNS5_IXadL_ZNS0_8variableES3_EEXadL_ZNS0_17identifier_schemaES3_EEJXadL_ZNS0_10identifierES3_EEXadL_ZNS0_13quoted_stringES3_EEXadL_ZNS0_6numberES3_EEXadL_ZNS0_3hexES3_EEXadL_ZNS0_4hexaES3_EEEEES3_S3_EEEEES3_S3_EEEEES3_S3_EEEES3_S3_EEEEES3_S3_EEEES3_S3_EEJXadL_ZNS0_23optional_css_whitespaceES3_EEXadL_ZNS6_ILc41EEES3_S3_EEEEES3_S3_ W
_ZN4Sass8Prelexer8sequenceIXadL_ZNS0_23optional_css_whitespaceEPKcEEXadL_ZNS1_IXadL_ZNS0_12alternativesIXadL_ZNS0_8variableES3_EEXadL_ZNS0_17identifier_schemaES3_EEJXadL_ZNS0_10identifierES3_EEEEES3_S3_EEXadL_ZNS0_23optional_css_whitespaceES3_EEJXadL_ZNS0_7exactlyILc61EEES3_S3_EEXadL_ZNS0_23optional_css_whitespaceES3_EEXadL_ZNS4_IXadL_ZNS0_8variableES3_EEXadL_ZNS0_17identifier_schemaES3_EEJXadL_ZNS0_10identifierES3_EEXadL_ZNS0_13quoted_stringES3_EEXadL_ZNS0_6numberES3_EEXadL_ZNS0_3hexES3_EEXadL_ZNS0_4hexaES3_EEEEES3_S3_EEEEES3_S3_EEJEEES3_S3_ W
_ZN4Sass8Prelexer8sequenceIXadL_ZNS0_3hexEPKcEEXadL_ZNS0_6negateIXadL_ZNS0_7exactlyILc45EEES3_S3_EEEES3_S3_EEJEEES3_S3_ W
_ZN4Sass8Prelexer8sequenceIXadL_ZNS0_6negateIXadL_ZNS0_15unsigned_numberEPKcEEEES4_S4_EEXadL_ZNS0_7exactlyILc45EEES4_S4_EEJXadL_ZNS2_IXadL_ZNS0_15unsigned_numberES4_EEEES4_S4_EEEEES4_S4_ W
_ZN4Sass8Prelexer8sequenceIXadL_ZNS0_6negateIXadL_ZNS0_15unsigned_numberEPKcEEEES4_S4_EEXadL_ZNS0_7exactlyILc45EEES4_S4_EEJXadL_ZNS2_IXadL_ZNS0_5spaceES4_EEEES4_S4_EEEEES4_S4_ W
_ZN4Sass8Prelexer8sequenceIXadL_ZNS0_6negateIXadL_ZNS0_5digitEPKcEEEES4_S4_EEXadL_ZNS0_7exactlyILc45EEES4_S4_EEJEEES4_S4_ W
_ZN4Sass8Prelexer8sequenceIXadL_ZNS0_6numberEPKcEEXadL_ZNS0_15unit_identifierES3_EEJEEES3_S3_ W
_ZN4Sass8Prelexer8sequenceIXadL_ZNS0_6numberEPKcEEXadL_ZNS0_9lookaheadIXadL_ZNS1_IXadL_ZNS0_2opES3_EEXadL_ZNS0_6numberES3_EEJEEES3_S3_EEEES3_S3_EEJEEES3_S3_ W
_ZN4Sass8Prelexer8sequenceIXadL_ZNS0_7exactlyILc35EEEPKcS4_EEXadL_ZNS0_10identifierES4_EEJEEES4_S4_ W
_ZN4Sass8Prelexer8sequenceIXadL_ZNS0_7exactlyILc36EEEPKcS4_EEXadL_ZNS0_10identifierES4_EEJEEES4_S4_ W
_ZN4Sass8Prelexer8sequenceIXadL_ZNS0_7exactlyILc45EEEPKcS4_EEXadL_ZNS2_ILc45EEES4_S4_EEJEEES4_S4_ W
_ZN4Sass8Prelexer8sequenceIXadL_ZNS0_7exactlyIXadL_ZNS_9Constants10extend_kwdEEEEEPKcS5_EEXadL_ZNS0_13word_boundaryES5_EEJEEES5_S5_ W
_ZN4Sass8Prelexer8sequenceIXadL_ZNS0_7exactlyIXadL_ZNS_9Constants10import_kwdEEEEEPKcS5_EEXadL_ZNS0_13word_boundaryES5_EEJEEES5_S5_ W
_ZN4Sass8Prelexer8sequenceIXadL_ZNS0_7exactlyIXadL_ZNS_9Constants10return_kwdEEEEEPKcS5_EEXadL_ZNS0_13word_boundaryES5_EEJEEES5_S5_ W
_ZN4Sass8Prelexer8sequenceIXadL_ZNS0_7exactlyIXadL_ZNS_9Constants11at_root_kwdEEEEEPKcS5_EEXadL_ZNS0_13word_boundaryES5_EEJEEES5_S5_ W
_ZN4Sass8Prelexer8sequenceIXadL_ZNS0_7exactlyIXadL_ZNS_9Constants11charset_kwdEEEEEPKcS5_EEXadL_ZNS0_13word_boundaryES5_EEJEEES5_S5_ W
_ZN4Sass8Prelexer8sequenceIXadL_ZNS0_7exactlyIXadL_ZNS_9Constants11content_kwdEEEEEPKcS5_EEXadL_ZNS0_13word_boundaryES5_EEJEEES5_S5_ W
_ZN4Sass8Prelexer8sequenceIXadL_ZNS0_7exactlyIXadL_ZNS_9Constants11hash_lbraceEEEEEPKcS5_EEXadL_ZNS2_IXadL_ZNS3_6rbraceEEEEES5_S5_EEJEEES5_S5_ W
_ZN4Sass8Prelexer8sequenceIXadL_ZNS0_7exactlyIXadL_ZNS_9Constants11include_kwdEEEEEPKcS5_EEXadL_ZNS0_13word_boundaryES5_EEJEEES5_S5_ W
_ZN4Sass8Prelexer8sequenceIXadL_ZNS0_7exactlyIXadL_ZNS_9Constants12function_kwdEEEEEPKcS5_EEXadL_ZNS0_13word_boundaryES5_EEJEEES5_S5_ W
_ZN4Sass8Prelexer8sequenceIXadL_ZNS0_7exactlyIXadL_ZNS_9Constants13important_kwdEEEEEPKcS5_EEXadL_ZNS0_13word_boundaryES5_EEJEEES5_S5_ W
_ZN4Sass8Prelexer8sequenceIXadL_ZNS0_7exactlyIXadL_ZNS_9Constants14expression_kwdEEEEEPKcS5_EEXadL_ZNS0_13word_boundaryES5_EEJEEES5_S5_ W
_ZN4Sass8Prelexer8sequenceIXadL_ZNS0_7exactlyIXadL_ZNS_9Constants6if_kwdEEEEEPKcS5_EEXadL_ZNS0_13word_boundaryES5_EEJEEES5_S5_ W
_ZN4Sass8Prelexer8sequenceIXadL_ZNS0_7exactlyIXadL_ZNS_9Constants7for_kwdEEEEEPKcS5_EEXadL_ZNS0_13word_boundaryES5_EEJEEES5_S5_ W
_ZN4Sass8Prelexer8sequenceIXadL_ZNS0_7exactlyIXadL_ZNS_9Constants8each_kwdEEEEEPKcS5_EEXadL_ZNS0_13word_boundaryES5_EEJEEES5_S5_ W
_ZN4Sass8Prelexer8sequenceIXadL_ZNS0_7exactlyIXadL_ZNS_9Constants8else_kwdEEEEEPKcS5_EEXadL_ZNS0_13word_boundaryES5_EEJEEES5_S5_ W
_ZN4Sass8Prelexer8sequenceIXadL_ZNS0_7exactlyIXadL_ZNS_9Constants8warn_kwdEEEEEPKcS5_EEXadL_ZNS0_13word_boundaryES5_EEJEEES5_S5_ W
_ZN4Sass8Prelexer8sequenceIXadL_ZNS0_7exactlyIXadL_ZNS_9Constants9debug_kwdEEEEEPKcS5_EEXadL_ZNS0_13word_boundaryES5_EEJEEES5_S5_ W
_ZN4Sass8Prelexer8sequenceIXadL_ZNS0_7exactlyIXadL_ZNS_9Constants9error_kwdEEEEEPKcS5_EEXadL_ZNS0_13word_boundaryES5_EEJEEES5_S5_ W
_ZN4Sass8Prelexer8sequenceIXadL_ZNS0_7exactlyIXadL_ZNS_9Constants9media_kwdEEEEEPKcS5_EEXadL_ZNS0_13word_boundaryES5_EEJEEES5_S5_ W
_ZN4Sass8Prelexer8sequenceIXadL_ZNS0_7exactlyIXadL_ZNS_9Constants9mixin_kwdEEEEEPKcS5_EEXadL_ZNS0_13word_boundaryES5_EEJEEES5_S5_ W
_ZN4Sass8Prelexer8sequenceIXadL_ZNS0_7exactlyIXadL_ZNS_9Constants9while_kwdEEEEEPKcS5_EEXadL_ZNS0_13word_boundaryES5_EEJEEES5_S5_ W
_ZN4Sass8Prelexer8sequenceIXadL_ZNS0_7kwd_notEPKcEEEES3_S3_ W
_ZN4Sass8Prelexer8sequenceIXadL_ZNS0_8binomialEPKcEEXadL_ZNS0_13word_boundaryES3_EEJEEES3_S3_ W
_ZN4Sass8Prelexer8sequenceIXadL_ZNS0_8optionalIXadL_ZNS0_13pseudo_prefixEPKcEEEES4_S4_EEXadL_ZNS0_10identifierES4_EEJEEES4_S4_ W
_ZN4Sass8Prelexer8sequenceIXadL_ZNS0_8optionalIXadL_ZNS0_16namespace_schemaEPKcEEEES4_S4_EEXadL_ZNS0_10identifierES4_EEJEEES4_S4_ W
_ZN4Sass8Prelexer8sequenceIXadL_ZNS0_8optionalIXadL_ZNS0_16namespace_schemaEPKcEEEES4_S4_EEXadL_ZNS0_12alternativesIXadL_ZNS1_IXadL_ZNS0_7exactlyILc35EEES4_S4_EEXadL_ZNS0_6negateIXadL_ZNS6_ILc123EEES4_S4_EEEES4_S4_EEJEEES4_S4_EEXadL_ZNS6_ILc46EEES4_S4_EEJXadL_ZNS1_IXadL_ZNS2_IXadL_ZNS0_13pseudo_prefixES4_EEEES4_S4_EEXadL_ZNS7_IXadL_ZNS0_10uri_prefixES4_EEEES4_S4_EEJEEES4_S4_EEEEES4_S4_EEJXadL_ZNS0_8one_plusIXadL_ZNS1_IXadL_ZNS0_9zero_plusIXadL_ZNS1_IXadL_ZNS6_ILc45EEES4_S4_EEXadL_ZNS0_15optional_spacesES4_EEJEEES4_S4_EEEES4_S4_EEXadL_ZNS5_IXadL_ZNS0_12kwd_optionalES4_EEXadL_ZNS6_ILc42EEES4_S4_EEJXadL_ZNS0_13quoted_stringES4_EEXadL_ZNS0_11interpolantES4_EEXadL_ZNS0_10identifierES4_EEXadL_ZNS0_8variableES4_EEXadL_ZNS0_10percentageES4_EEXadL_ZNS0_8binomialES4_EEXadL_ZNS0_9dimensionES4_EEXadL_ZNS0_5alnumES4_EEEEES4_S4_EEJEEES4_S4_EEEES4_S4_EEXadL_ZNS9_IXadL_ZNS6_ILc45EEES4_S4_EEEES4_S4_EEEEES4_S4_ W
_ZN4Sass8Prelexer8sequenceIXadL_ZNS0_8optionalIXadL_ZNS0_18value_combinationsEPKcEEEES4_S4_EEXadL_ZNS0_11interpolantES4_EEJXadL_ZNS2_IXadL_ZNS0_18value_combinationsES4_EEEES4_S4_EEEEES4_S4_ W
_ZN4Sass8Prelexer8sequenceIXadL_ZNS0_8optionalIXadL_ZNS0_1WEPKcEEEES4_S4_EEXadL_ZNS0_7exactlyILc41EEES4_S4_EEJEEES4_S4_ W
_ZN4Sass8Prelexer8sequenceIXadL_ZNS0_8optionalIXadL_ZNS0_7exactlyILc42EEEPKcS5_EEEES5_S5_EEXadL_ZNS0_10identifierES5_EEJXadL_ZNS0_9zero_plusIXadL_ZNS0_13block_commentES5_EEEES5_S5_EEEEES5_S5_ W
_ZN4Sass8Prelexer8sequenceIXadL_ZNS0_8optionalIXadL_ZNS0_7exactlyILc42EEEPKcS5_EEEES5_S5_EEXadL_ZNS0_17identifier_schemaES5_EEJEEES5_S5_ W
_ZN4Sass8Prelexer8sequenceIXadL_ZNS0_8optionalIXadL_ZNS1_IXadL_ZNS0_12alternativesIXadL_ZNS0_8variableEPKcEEXadL_ZNS0_17identifier_schemaES5_EEJXadL_ZNS0_10identifierES5_EEEEES5_S5_EEXadL_ZNS0_23optional_css_whitespaceES5_EEJXadL_ZNS0_7exactlyILc61EEES5_S5_EEXadL_ZNS0_23optional_css_whitespaceES5_EEXadL_ZNS3_IXadL_ZNS0_8variableES5_EEXadL_ZNS0_17identifier_schemaES5_EEJXadL_ZNS0_10identifierES5_EEXadL_ZNS0_13quoted_stringES5_EEXadL_ZNS0_6numberES5_EEXadL_ZNS0_3hexES5_EEXadL_ZNS0_4hexaES5_EEEEES5_S5_EEXadL_ZNS0_9zero_plusIXadL_ZNS1_IXadL_ZNS0_23optional_css_whitespaceES5_EEXadL_ZNS6_ILc44EEES5_S5_EEJXadL_ZNS0_23optional_css_whitespaceES5_EEXadL_ZNS1_IXadL_ZNS3_IXadL_ZNS0_8variableES5_EEXadL_ZNS0_17identifier_schemaES5_EEJXadL_ZNS0_10identifierES5_EEEEES5_S5_EEXadL_ZNS0_23optional_css_whitespaceES5_EEJXadL_ZNS6_ILc61EEES5_S5_EEXadL_ZNS0_23optional_css_whitespaceES5_EEXadL_ZNS3_IXadL_ZNS0_8variableES5_EEXadL_ZNS0_17identifier_schemaES5_EEJXadL_ZNS0_10identifierES5_EEXadL_ZNS0_13quoted_stringES5_EEXadL_ZNS0_6numberES5_EEXadL_ZNS0_3hexES5_EEXadL_ZNS0_4hexaES5_EEEEES5_S5_EEEEES5_S5_EEEEES5_S5_EEEES5_S5_EEEEES5_S5_EEEES5_S5_EEXadL_ZNS0_23optional_css_whitespaceES5_EEJXadL_ZNS6_ILc41EEES5_S5_EEEEES5_S5_ W
_ZN4Sass8Prelexer8sequenceIXadL_ZNS0_8optionalIXadL_ZNS1_IXadL_ZNS0_7exactlyILc45EEEPKcS5_EEXadL_ZNS0_8one_plusIXadL_ZNS0_12alternativesIXadL_ZNS0_5alphaES5_EEXadL_ZNS3_ILc43EEES5_S5_EEJXadL_ZNS3_ILc45EEES5_S5_EEEEES5_S5_EEEES5_S5_EEJEEES5_S5_EEEES5_S5_EEXadL_ZNS7_IXadL_ZNS0_4wordIXadL_ZNS_9Constants14expression_kwdEEEEES5_S5_EEXadL_ZNS1_IXadL_ZNS1_IXadL_ZNS0_7exactlyIXadL_ZNS9_10progid_kwdEEEEES5_S5_EEXadL_ZNS3_ILc58EEES5_S5_EEJEEES5_S5_EEXadL_ZNS0_9zero_plusIXadL_ZNS7_IXadL_ZNS0_10char_rangeILc97ELc122EEES5_S5_EEXadL_ZNS3_ILc46EEES5_S5_EEJEEES5_S5_EEEES5_S5_EEJEEES5_S5_EEJEEES5_S5_EEJEEES5_S5_ W
_ZN4Sass8Prelexer8sequenceIXadL_ZNS0_8sequenceIXadL_ZNS0_10identifierEPKcEEXadL_ZNS0_8optionalIXadL_ZNS0_13block_commentES4_EEEES4_S4_EEJXadL_ZNS0_7exactlyILc40EEES4_S4_EEEEES4_S4_EEEES4_S4_ W
_ZN4Sass8Prelexer8sequenceIXadL_ZNS0_8variableEPKcEEXadL_ZNS0_21optional_css_commentsES3_EEJXadL_ZNS0_7exactlyILc58EEES3_S3_EEEEES3_S3_ W
_ZN4Sass8Prelexer8sequenceIXadL_ZNS0_9dimensionEPKcEEXadL_ZNS0_8optionalIXadL_ZNS1_IXadL_ZNS0_7exactlyILc45EEES3_S3_EEXadL_ZNS0_9lookaheadIXadL_ZNS0_12alternativesIXadL_ZNS0_5spaceES3_EEEES3_S3_EEEES3_S3_EEJEEES3_S3_EEEES3_S3_EEJEEES3_S3_ W
_ZN4Sass8Prelexer8sequenceIXadL_ZNS0_9zero_plusIXadL_ZNS0_12alternativesIXadL_ZNS0_10identifierEPKcEEXadL_ZNS0_7exactlyILc45EEES5_S5_EEJEEES5_S5_EEEES5_S5_EEXadL_ZNS0_8one_plusIXadL_ZNS1_IXadL_ZNS0_11interpolantES5_EEXadL_ZNS3_IXadL_ZNS0_6digitsES5_EEXadL_ZNS0_10identifierES5_EEJXadL_ZNS6_ILc43EEES5_S5_EEXadL_ZNS6_ILc45EEES5_S5_EEEEES5_S5_EEJEEES5_S5_EEEES5_S5_EEJEEES5_S5_ W
_ZN4Sass8Prelexer8sequenceIXadL_ZNS0_9zero_plusIXadL_ZNS0_12alternativesIXadL_ZNS1_IXadL_ZNS0_7exactlyILc92EEEPKcS6_EEXadL_ZNS0_8any_charES6_EEJEEES6_S6_EEXadL_ZNS1_IXadL_ZNS4_ILc35EEES6_S6_EEXadL_ZNS0_6negateIXadL_ZNS4_ILc123EEES6_S6_EEEES6_S6_EEJEEES6_S6_EEJXadL_ZNS0_14neg_class_charIXadL_ZNS0_21string_double_negatesEEEEES6_S6_EEEEES6_S6_EEEES6_S6_EEXadL_ZNS3_IXadL_ZNS4_ILc34EEES6_S6_EEXadL_ZNS0_9lookaheadIXadL_ZNS0_7exactlyIXadL_ZNS_9Constants11hash_lbraceEEEEES6_S6_EEEES6_S6_EEJEEES6_S6_EEJEEES6_S6_ W
_ZN4Sass8Prelexer8sequenceIXadL_ZNS0_9zero_plusIXadL_ZNS0_12alternativesIXadL_ZNS1_IXadL_ZNS0_7exactlyILc92EEEPKcS6_EEXadL_ZNS0_8any_charES6_EEJEEES6_S6_EEXadL_ZNS1_IXadL_ZNS4_ILc35EEES6_S6_EEXadL_ZNS0_6negateIXadL_ZNS4_ILc123EEES6_S6_EEEES6_S6_EEJEEES6_S6_EEJXadL_ZNS0_14neg_class_charIXadL_ZNS0_21string_single_negatesEEEEES6_S6_EEEEES6_S6_EEEES6_S6_EEXadL_ZNS3_IXadL_ZNS4_ILc39EEES6_S6_EEXadL_ZNS0_9lookaheadIXadL_ZNS0_7exactlyIXadL_ZNS_9Constants11hash_lbraceEEEEES6_S6_EEEES6_S6_EEJEEES6_S6_EEJEEES6_S6_ W
_ZN4Sass8Prelexer8sequenceIXadL_ZNS0_9zero_plusIXadL_ZNS0_12alternativesIXadL_ZNS1_IXadL_ZNS0_8optionalIXadL_ZNS0_7exactlyILc36EEEPKcS7_EEEES7_S7_EEXadL_ZNS0_10identifierES7_EEJEEES7_S7_EEXadL_ZNS5_ILc45EEES7_S7_EEJEEES7_S7_EEEES7_S7_EEXadL_ZNS0_11interpolantES7_EEJXadL_ZNS2_IXadL_ZNS3_IXadL_ZNS0_6digitsES7_EEXadL_ZNS1_IXadL_ZNS4_IXadL_ZNS5_ILc36EEES7_S7_EEEES7_S7_EEXadL_ZNS0_10identifierES7_EEJEEES7_S7_EEJXadL_ZNS0_13quoted_stringES7_EEXadL_ZNS5_ILc45EEES7_S7_EEEEES7_S7_EEEES7_S7_EEEEES7_S7_ W
_ZN4Sass8Prelexer8sequenceIXadL_ZNS0_9zero_plusIXadL_ZNS0_7exactlyILc45EEEPKcS5_EEEES5_S5_EEXadL_ZNS0_10identifierES5_EEJEEES5_S5_ W
_ZN4Sass8Prelexer8sequenceIXadL_ZNS0_9zero_plusIXadL_ZNS1_IXadL_ZNS0_21optional_css_commentsEPKcEEXadL_ZNS0_12alternativesIXadL_ZNS0_7exactlyILc44EEES4_S4_EEXadL_ZNS6_ILc40EEES4_S4_EEJXadL_ZNS6_ILc41EEES4_S4_EEXadL_ZNS0_12kwd_optionalES4_EEXadL_ZNS0_13quoted_stringES4_EEXadL_ZNS0_11interpolantES4_EEXadL_ZNS0_10identifierES4_EEXadL_ZNS0_10percentageES4_EEXadL_ZNS0_9dimensionES4_EEXadL_ZNS0_8variableES4_EEXadL_ZNS0_5alnumES4_EEXadL_ZNS1_IXadL_ZNS6_ILc92EEES4_S4_EEXadL_ZNS0_8any_charES4_EEJEEES4_S4_EEEEES4_S4_EEJEEES4_S4_EEEES4_S4_EEXadL_ZNS0_9lookaheadIXadL_ZNS1_IXadL_ZNS0_21optional_css_commentsES4_EEXadL_ZNS5_IXadL_ZNS6_ILc59EEES4_S4_EEXadL_ZNS6_ILc125EEES4_S4_EEJXadL_ZNS0_11end_of_fileES4_EEEEES4_S4_EEJEEES4_S4_EEEES4_S4_EEJEEES4_S4_ W
_ZN4Sass8Prelexer8sequenceIXadL_ZNS0_9zero_plusIXadL_ZNS1_IXadL_ZNS0_7exactlyILc45EEEPKcS5_EEXadL_ZNS0_15optional_spacesES5_EEJEEES5_S5_EEEES5_S5_EEXadL_ZNS0_12alternativesIXadL_ZNS0_12kwd_optionalES5_EEXadL_ZNS3_ILc42EEES5_S5_EEJXadL_ZNS0_13quoted_stringES5_EEXadL_ZNS0_11interpolantES5_EEXadL_ZNS0_10identifierES5_EEXadL_ZNS0_8variableES5_EEXadL_ZNS0_10percentageES5_EEXadL_ZNS0_8binomialES5_EEXadL_ZNS0_9dimensionES5_EEXadL_ZNS0_5alnumES5_EEEEES5_S5_EEJEEES5_S5_ W
_ZN4Sass8Prelexer8sequenceIXadL_ZNS1_IXadL_ZNS0_7exactlyIXadL_ZNS_9Constants10progid_kwdEEEEEPKcS5_EEXadL_ZNS0_7exactlyILc58EEES5_S5_EEJEEES5_S5_EEXadL_ZNS0_9zero_plusIXadL_ZNS0_12alternativesIXadL_ZNS0_10char_rangeILc97ELc122EEES5_S5_EEXadL_ZNS6_ILc46EEES5_S5_EEJEEES5_S5_EEEES5_S5_EEJEEES5_S5_ W
_ZN4Sass8Prelexer8UUNICODEEPKc T
_ZN4Sass8Prelexer8variableEPKc T
_ZN4Sass8Prelexer9ampersandEPKc T
_ZN4Sass8Prelexer9dimensionEPKc T
_ZN4Sass8Prelexer9ie_progidEPKc T
_ZN4Sass8Prelexer9is_numberEc T
_ZN4Sass8Prelexer9kwd_colonEPKc T
_ZN4Sass8Prelexer9kwd_commaEPKc T
_ZN4Sass8Prelexer9kwd_falseEPKc T
_ZN4Sass8Prelexer9kwd_mediaEPKc T
_ZN4Sass8Prelexer9kwd_minusEPKc T
_ZN4Sass8Prelexer9kwd_mixinEPKc T
_ZN4Sass8Prelexer9kwd_slashEPKc T
_ZN4Sass8Prelexer9kwd_usingEPKc T
_ZN4Sass8Prelexer9no_spacesEPKc T
_ZN4Sass8Prelexer9universalEPKc T
_ZN4Sass8PreValueC1ENS_10SourceSpanEbbbNS_10Expression4TypeE T
_ZN4Sass8PreValueC1EPKS0_ T
_ZN4Sass8PreValueC2ENS_10SourceSpanEbbbNS_10Expression4TypeE T
_ZN4Sass8PreValueC2EPKS0_ T
_ZN4Sass8safe_strEPKcS1_ T
_ZN4Sass8SelectorC1ENS_10SourceSpanE T
_ZN4Sass8SelectorC1EPKS0_ T
_ZN4Sass8SelectorC2ENS_10SourceSpanE T
_ZN4Sass8SelectorC2EPKS0_ T
_ZN4Sass8To_ValueclEPNS_10Color_HSLAE T
_ZN4Sass8To_ValueclEPNS_10Color_RGBAE T
_ZN4Sass8To_ValueclEPNS_12Custom_ErrorE T
_ZN4Sass8To_ValueclEPNS_12SelectorListE T
_ZN4Sass8To_ValueclEPNS_13String_QuotedE T
_ZN4Sass8To_ValueclEPNS_14Custom_WarningE T
_ZN4Sass8To_ValueclEPNS_15String_ConstantE T
_ZN4Sass8To_ValueclEPNS_17Binary_ExpressionE T
_ZN4Sass8To_ValueclEPNS_3MapE T
_ZN4Sass8To_ValueclEPNS_4ListE T
_ZN4Sass8To_ValueclEPNS_4NullE T
_ZN4Sass8To_ValueclEPNS_6NumberE T
_ZN4Sass8To_ValueclEPNS_7BooleanE T
_ZN4Sass8To_ValueclEPNS_8ArgumentE T
_ZN4Sass8To_ValueclEPNS_8FunctionE T
_ZN4Sass8Variable7performEPNS_9OperationINSt7__cxx1112basic_stringIcSt11char_traitsIcESaIcEEEEE W
_ZN4Sass8Variable7performEPNS_9OperationIP10Sass_ValueEE W
_ZN4Sass8Variable7performEPNS_9OperationIPNS_10ExpressionEEE W
_ZN4Sass8Variable7performEPNS_9OperationIPNS_17SupportsConditionEEE W
_ZN4Sass8Variable7performEPNS_9OperationIPNS_5ValueEEE W
_ZN4Sass8Variable7performEPNS_9OperationIPNS_8AST_NodeEEE W
_ZN4Sass8Variable7performEPNS_9OperationIPNS_8SelectorEEE W
_ZN4Sass8Variable7performEPNS_9OperationIPNS_9StatementEEE W
_ZN4Sass8Variable7performEPNS_9OperationIvEE W
_ZN4Sass8VariableC1ENS_10SourceSpanENSt7__cxx1112basic_stringIcSt11char_traitsIcESaIcEEE T
_ZN4Sass8VariableC1EPKS0_ T
_ZN4Sass8VariableC2ENS_10SourceSpanENSt7__cxx1112basic_stringIcSt11char_traitsIcESaIcEEE T
_ZN4Sass8VariableC2EPKS0_ T
_ZN4Sass8VariableD0Ev W
_ZN4Sass8VariableD1Ev W
_ZN4Sass8VariableD2Ev W
_ZN4Sass9Arguments11set_delayedEb T
_ZN4Sass9Arguments17get_rest_argumentEv T
_ZN4Sass9Arguments20adjust_after_pushingENS_10SharedImplINS_8ArgumentEEE T
_ZN4Sass9Arguments20get_keyword_argumentEv T
_ZN4Sass9Arguments7performEPNS_9OperationINSt7__cxx1112basic_stringIcSt11char_traitsIcESaIcEEEEE W
_ZN4Sass9Arguments7performEPNS_9OperationIP10Sass_ValueEE W
_ZN4Sass9Arguments7performEPNS_9OperationIPNS_10ExpressionEEE W
_ZN4Sass9Arguments7performEPNS_9OperationIPNS_17SupportsConditionEEE W
_ZN4Sass9Arguments7performEPNS_9OperationIPNS_5ValueEEE W
_ZN4Sass9Arguments7performEPNS_9OperationIPNS_8AST_NodeEEE W
_ZN4Sass9Arguments7performEPNS_9OperationIPNS_8SelectorEEE W
_ZN4Sass9Arguments7performEPNS_9OperationIPNS_9StatementEEE W
_ZN4Sass9Arguments7performEPNS_9OperationIvEE W
_ZN4Sass9ArgumentsC1ENS_10SourceSpanE T
_ZN4Sass9ArgumentsC1EPKS0_ T
_ZN4Sass9ArgumentsC2ENS_10SourceSpanE T
_ZN4Sass9ArgumentsC2EPKS0_ T
_ZN4Sass9ArgumentsD0Ev W
_ZN4Sass9ArgumentsD1Ev W
_ZN4Sass9ArgumentsD2Ev W
_ZN4Sass9BacktraceC1ENS_10SourceSpanENSt7__cxx1112basic_stringIcSt11char_traitsIcESaIcEEE W
_ZN4Sass9BacktraceC2ENS_10SourceSpanENSt7__cxx1112basic_stringIcSt11char_traitsIcESaIcEEE W
_ZN4Sass9BacktraceD1Ev W
_ZN4Sass9BacktraceD2Ev W
_ZN4Sass9Base64VLQ10CHARACTERSE D 8
_ZN4Sass9Base64VLQ13VLQ_BASE_MASKE R
_ZN4Sass9Base64VLQ14VLQ_BASE_SHIFTE R
_ZN4Sass9Base64VLQ20VLQ_CONTINUATION_BITE R
_ZN4Sass9Base64VLQ8VLQ_BASEE R
_ZN4Sass9cmpGroupsERKSt6vectorINS_10SharedImplINS_17SelectorComponentEEESaIS3_EES7_RS5_ T
_ZN4Sass9Constants10bocu_1_bomE R
_ZN4Sass9Constants10color_nameE R
_ZN4Sass9Constants10extend_kwdE R
_ZN4Sass9Constants10global_kwdE R
_ZN4Sass9Constants10import_kwdE R
_ZN4Sass9Constants10pipe_equalE R
_ZN4Sass9Constants10progid_kwdE R
_ZN4Sass9Constants10return_kwdE R
_ZN4Sass9Constants10rgb_fn_kwdE R
_ZN4Sass9Constants10sign_charsE R
_ZN4Sass9Constants10slash_starE R
_ZN4Sass9Constants10star_equalE R
_ZN4Sass9Constants10star_slashE R
_ZN4Sass9Constants10static_opsE R
_ZN4Sass9Constants10url_fn_kwdE R
_ZN4Sass9Constants11at_root_kwdE R
_ZN4Sass9Constants11calc_fn_kwdE R
_ZN4Sass9Constants11caret_equalE R
_ZN4Sass9Constants11charset_kwdE R
_ZN4Sass9Constants11content_kwdE R
_ZN4Sass9Constants11default_kwdE R
_ZN4Sass9Constants11hash_lbraceE R
_ZN4Sass9Constants11include_kwdE R
_ZN4Sass9Constants11number_nameE R
_ZN4Sass9Constants11percent_strE R
_ZN4Sass9Constants11slash_slashE R
_ZN4Sass9Constants11string_nameE R
_ZN4Sass9Constants11through_kwdE R
_ZN4Sass9Constants11tilde_equalE R
_ZN4Sass9Constants11utf_7_bom_1E R
_ZN4Sass9Constants11utf_7_bom_2E R
_ZN4Sass9Constants11utf_7_bom_3E R
_ZN4Sass9Constants11utf_7_bom_4E R
_ZN4Sass9Constants11utf_7_bom_5E R
_ZN4Sass9Constants11without_kwdE R
_ZN4Sass9Constants12arglist_nameE R
_ZN4Sass9Constants12dollar_equalE R
_ZN4Sass9Constants12function_kwdE R
_ZN4Sass9Constants12gb_18030_bomE R
_ZN4Sass9Constants12MaxCallStackE R
_ZN4Sass9Constants12numeric_nameE R
_ZN4Sass9Constants12optional_kwdE R
_ZN4Sass9Constants12sel_deep_kwdE R
_ZN4Sass9Constants12supports_kwdE R
_ZN4Sass9Constants13important_kwdE R
_ZN4Sass9Constants13keyframes_kwdE R
_ZN4Sass9Constants13utf_16_bom_beE R
_ZN4Sass9Constants13utf_16_bom_leE R
_ZN4Sass9Constants13utf_32_bom_beE R
_ZN4Sass9Constants13utf_32_bom_leE R
_ZN4Sass9Constants13vendor_ms_kwdE R
_ZN4Sass9Constants14dimension_nameE R
_ZN4Sass9Constants14expression_kwdE R
_ZN4Sass9Constants14real_uri_charsE R
_ZN4Sass9Constants14Specificity_IDE R
_ZN4Sass9Constants14utf_ebcdic_bomE R
_ZN4Sass9Constants15percentage_nameE R
_ZN4Sass9Constants16Specificity_AttrE R
_ZN4Sass9Constants16Specificity_BaseE R
_ZN4Sass9Constants16Specificity_StarE R
_ZN4Sass9Constants16vendor_khtml_kwdE R
_ZN4Sass9Constants16vendor_opera_kwdE R
_ZN4Sass9Constants17if_after_else_kwdE R
_ZN4Sass9Constants17pseudo_not_fn_kwdE R
_ZN4Sass9Constants17Specificity_ClassE R
_ZN4Sass9Constants17vendor_webkit_kwdE R
_ZN4Sass9Constants18Specificity_PseudoE R
_ZN4Sass9Constants18vendor_mozilla_kwdE R
_ZN4Sass9Constants19Specificity_ElementE R
_ZN4Sass9Constants19UnificationOrder_IdE R
_ZN4Sass9Constants20selector_list_delimsE R
_ZN4Sass9Constants21Specificity_UniversalE R
_ZN4Sass9Constants22almost_any_value_classE R
_ZN4Sass9Constants22selector_lookahead_opsE R
_ZN4Sass9Constants22UnificationOrder_ClassE R
_ZN4Sass9Constants23complex_selector_delimsE R
_ZN4Sass9Constants23selector_combinator_opsE R
_ZN4Sass9Constants24UnificationOrder_ElementE R
_ZN4Sass9Constants24UnificationOrder_WrappedE R
_ZN4Sass9Constants25selector_combinator_childE R
_ZN4Sass9Constants26UnificationOrder_AttributeE R
_ZN4Sass9Constants27attribute_compare_modifiersE R
_ZN4Sass9Constants27selector_combinator_generalE R
_ZN4Sass9Constants28selector_combinator_adjacentE R
_ZN4Sass9Constants28UnificationOrder_PlaceholderE R
_ZN4Sass9Constants28UnificationOrder_PseudoClassE R
_ZN4Sass9Constants2eqE R
_ZN4Sass9Constants2gtE R
_ZN4Sass9Constants2ltE R
_ZN4Sass9Constants30UnificationOrder_PseudoElementE R
_ZN4Sass9Constants3gteE R
_ZN4Sass9Constants3lteE R
_ZN4Sass9Constants3neqE R
_ZN4Sass9Constants5s_kwdE R
_ZN4Sass9Constants6cm_kwdE R
_ZN4Sass9Constants6em_kwdE R
_ZN4Sass9Constants6ex_kwdE R
_ZN4Sass9Constants6hyphenE R
_ZN4Sass9Constants6Hz_kwdE R
_ZN4Sass9Constants6if_kwdE R
_ZN4Sass9Constants6in_kwdE R
_ZN4Sass9Constants6mm_kwdE R
_ZN4Sass9Constants6ms_kwdE R
_ZN4Sass9Constants6of_kwdE R
_ZN4Sass9Constants6or_kwdE R
_ZN4Sass9Constants6pc_kwdE R
_ZN4Sass9Constants6pt_kwdE R
_ZN4Sass9Constants6px_kwdE R
_ZN4Sass9Constants6rbraceE R
_ZN4Sass9Constants6rparenE R
_ZN4Sass9Constants6to_kwdE R
_ZN4Sass9Constants7all_kwdE R
_ZN4Sass9Constants7and_kwdE R
_ZN4Sass9Constants7deg_kwdE R
_ZN4Sass9Constants7for_kwdE R
_ZN4Sass9Constants7kHz_kwdE R
_ZN4Sass9Constants7not_kwdE R
_ZN4Sass9Constants7odd_kwdE R
_ZN4Sass9Constants7rad_kwdE R
_ZN4Sass9Constants7url_kwdE R
_ZN4Sass9Constants8each_kwdE R
_ZN4Sass9Constants8ellipsisE R
_ZN4Sass9Constants8else_kwdE R
_ZN4Sass9Constants8even_kwdE R
_ZN4Sass9Constants8from_kwdE R
_ZN4Sass9Constants8grad_kwdE R
_ZN4Sass9Constants8map_nameE R
_ZN4Sass9Constants8null_kwdE R
_ZN4Sass9Constants8only_kwdE R
_ZN4Sass9Constants8op_charsE R
_ZN4Sass9Constants8rule_kwdE R
_ZN4Sass9Constants8scsu_bomE R
_ZN4Sass9Constants8true_kwdE R
_ZN4Sass9Constants8turn_kwdE R
_ZN4Sass9Constants8warn_kwdE R
_ZN4Sass9Constants8with_kwdE R
_ZN4Sass9Constants9bool_nameE R
_ZN4Sass9Constants9debug_kwdE R
_ZN4Sass9Constants9empty_strE R
_ZN4Sass9Constants9error_kwdE R
_ZN4Sass9Constants9false_kwdE R
_ZN4Sass9Constants9list_nameE R
_ZN4Sass9Constants9media_kwdE R
_ZN4Sass9Constants9mixin_kwdE R
_ZN4Sass9Constants9uri_charsE R
_ZN4Sass9Constants9using_kwdE R
_ZN4Sass9Constants9utf_1_bomE R
_ZN4Sass9Constants9utf_8_bomE R
_ZN4Sass9Constants9while_kwdE R
_ZN4Sass9converterD1Ev W
_ZN4Sass9converterD2Ev W
_ZN4Sass9coreErrorENSt7__cxx1112basic_stringIcSt11char_traitsIcESaIcEEENS_10SourceSpanE T
_ZN4Sass9DebugRule7performEPNS_9OperationINSt7__cxx1112basic_stringIcSt11char_traitsIcESaIcEEEEE W
_ZN4Sass9DebugRule7performEPNS_9OperationIP10Sass_ValueEE W
_ZN4Sass9DebugRule7performEPNS_9OperationIPNS_10ExpressionEEE W
_ZN4Sass9DebugRule7performEPNS_9OperationIPNS_17SupportsConditionEEE W
_ZN4Sass9DebugRule7performEPNS_9OperationIPNS_5ValueEEE W
_ZN4Sass9DebugRule7performEPNS_9OperationIPNS_8AST_NodeEEE W
_ZN4Sass9DebugRule7performEPNS_9OperationIPNS_8SelectorEEE W
_ZN4Sass9DebugRule7performEPNS_9OperationIPNS_9StatementEEE W
_ZN4Sass9DebugRule7performEPNS_9OperationIvEE W
_ZN4Sass9DebugRuleC1ENS_10SourceSpanENS_10SharedImplINS_10ExpressionEEE T
_ZN4Sass9DebugRuleC1EPKS0_ T
_ZN4Sass9DebugRuleC2ENS_10SourceSpanENS_10SharedImplINS_10ExpressionEEE T
_ZN4Sass9DebugRuleC2EPKS0_ T
_ZN4Sass9DebugRuleD0Ev W
_ZN4Sass9DebugRuleD1Ev W
_ZN4Sass9DebugRuleD2Ev W
_ZN4Sass9ErrorRule7performEPNS_9OperationINSt7__cxx1112basic_stringIcSt11char_traitsIcESaIcEEEEE W
_ZN4Sass9ErrorRule7performEPNS_9OperationIP10Sass_ValueEE W
_ZN4Sass9ErrorRule7performEPNS_9OperationIPNS_10ExpressionEEE W
_ZN4Sass9ErrorRule7performEPNS_9OperationIPNS_17SupportsConditionEEE W
_ZN4Sass9ErrorRule7performEPNS_9OperationIPNS_5ValueEEE W
_ZN4Sass9ErrorRule7performEPNS_9OperationIPNS_8AST_NodeEEE W
_ZN4Sass9ErrorRule7performEPNS_9OperationIPNS_8SelectorEEE W
_ZN4Sass9ErrorRule7performEPNS_9OperationIPNS_9StatementEEE W
_ZN4Sass9ErrorRule7performEPNS_9OperationIvEE W
_ZN4Sass9ErrorRuleC1ENS_10SourceSpanENS_10SharedImplINS_10ExpressionEEE T
_ZN4Sass9ErrorRuleC1EPKS0_ T
_ZN4Sass9ErrorRuleC2ENS_10SourceSpanENS_10SharedImplINS_10ExpressionEEE T
_ZN4Sass9ErrorRuleC2EPKS0_ T
_ZN4Sass9ErrorRuleD0Ev W
_ZN4Sass9ErrorRuleD1Ev W
_ZN4Sass9ErrorRuleD2Ev W
_ZN4Sass9Exception10StackErrorC1ESt6vectorINS_9BacktraceESaIS3_EERKNS_8AST_NodeE T
_ZN4Sass9Exception10StackErrorC2ESt6vectorINS_9BacktraceESaIS3_EERKNS_8AST_NodeE T
_ZN4Sass9Exception10StackErrorD0Ev W
_ZN4Sass9Exception10StackErrorD1Ev W
_ZN4Sass9Exception10StackErrorD2Ev W
_ZN4Sass9Exception11InvalidSassC1ENS_10SourceSpanESt6vectorINS_9BacktraceESaIS4_EENSt7__cxx1112basic_stringIcSt11char_traitsIcESaIcEEE T
_ZN4Sass9Exception11InvalidSassC2ENS_10SourceSpanESt6vectorINS_9BacktraceESaIS4_EENSt7__cxx1112basic_stringIcSt11char_traitsIcESaIcEEE T
_ZN4Sass9Exception11InvalidSassD0Ev W
_ZN4Sass9Exception11InvalidSassD1Ev W
_ZN4Sass9Exception11InvalidSassD2Ev W
_ZN4Sass9Exception12InvalidValueC1ESt6vectorINS_9BacktraceESaIS3_EERKNS_10ExpressionE T
_ZN4Sass9Exception12InvalidValueC2ESt6vectorINS_9BacktraceESaIS3_EERKNS_10ExpressionE T
_ZN4Sass9Exception12InvalidValueD0Ev W
_ZN4Sass9Exception12InvalidValueD1Ev W
_ZN4Sass9Exception12InvalidValueD2Ev W
_ZN4Sass9Exception12TypeMismatchC1ESt6vectorINS_9BacktraceESaIS3_EERKNS_10ExpressionENSt7__cxx1112basic_stringIcSt11char_traitsIcESaIcEEE T
_ZN4Sass9Exception12TypeMismatchC2ESt6vectorINS_9BacktraceESaIS3_EERKNS_10ExpressionENSt7__cxx1112basic_stringIcSt11char_traitsIcESaIcEEE T
_ZN4Sass9Exception12TypeMismatchD0Ev W
_ZN4Sass9Exception12TypeMismatchD1Ev W
_ZN4Sass9Exception12TypeMismatchD2Ev W
_ZN4Sass9Exception13InvalidParentC1EPNS_8SelectorESt6vectorINS_9BacktraceESaIS5_EES3_ T
_ZN4Sass9Exception13InvalidParentC2EPNS_8SelectorESt6vectorINS_9BacktraceESaIS5_EES3_ T
_ZN4Sass9Exception13InvalidParentD0Ev W
_ZN4Sass9Exception13InvalidParentD1Ev W
_ZN4Sass9Exception13InvalidParentD2Ev W
_ZN4Sass9Exception13InvalidSyntaxC1ENS_10SourceSpanESt6vectorINS_9BacktraceESaIS4_EENSt7__cxx1112basic_stringIcSt11char_traitsIcESaIcEEE T
_ZN4Sass9Exception13InvalidSyntaxC2ENS_10SourceSpanESt6vectorINS_9BacktraceESaIS4_EENSt7__cxx1112basic_stringIcSt11char_traitsIcESaIcEEE T
_ZN4Sass9Exception13InvalidSyntaxD0Ev W
_ZN4Sass9Exception13InvalidSyntaxD1Ev W
_ZN4Sass9Exception13InvalidSyntaxD2Ev W
_ZN4Sass9Exception14OperationErrorD0Ev W
_ZN4Sass9Exception14OperationErrorD1Ev W
_ZN4Sass9Exception14OperationErrorD2Ev W
_ZN4Sass9Exception14SassValueErrorC1ESt6vectorINS_9BacktraceESaIS3_EENS_10SourceSpanERNS0_14OperationErrorE T
_ZN4Sass9Exception14SassValueErrorC2ESt6vectorINS_9BacktraceESaIS3_EENS_10SourceSpanERNS0_14OperationErrorE T
_ZN4Sass9Exception14SassValueErrorD0Ev W
_ZN4Sass9Exception14SassValueErrorD1Ev W
_ZN4Sass9Exception14SassValueErrorD2Ev W
_ZN4Sass9Exception14TopLevelParentC1ESt6vectorINS_9BacktraceESaIS3_EENS_10SourceSpanE T
_ZN4Sass9Exception14TopLevelParentC2ESt6vectorINS_9BacktraceESaIS3_EENS_10SourceSpanE T
_ZN4Sass9Exception14TopLevelParentD0Ev W
_ZN4Sass9Exception14TopLevelParentD1Ev W
_ZN4Sass9Exception14TopLevelParentD2Ev W
_ZN4Sass9Exception15MissingArgumentC1ENS_10SourceSpanESt6vectorINS_9BacktraceESaIS4_EENSt7__cxx1112basic_stringIcSt11char_traitsIcESaIcEEESC_SC_ T
_ZN4Sass9Exception15MissingArgumentC2ENS_10SourceSpanESt6vectorINS_9BacktraceESaIS4_EENSt7__cxx1112basic_stringIcSt11char_traitsIcESaIcEEESC_SC_ T
_ZN4Sass9Exception15MissingArgumentD0Ev W
_ZN4Sass9Exception15MissingArgumentD1Ev W
_ZN4Sass9Exception15MissingArgumentD2Ev W
_ZN4Sass9Exception17DuplicateKeyErrorC1ESt6vectorINS_9BacktraceESaIS3_EERKNS_3MapERKNS_10ExpressionE T
_ZN4Sass9Exception17DuplicateKeyErrorC2ESt6vectorINS_9BacktraceESaIS3_EERKNS_3MapERKNS_10ExpressionE T
_ZN4Sass9Exception17DuplicateKeyErrorD0Ev W
_ZN4Sass9Exception17DuplicateKeyErrorD1Ev W
_ZN4Sass9Exception17DuplicateKeyErrorD2Ev W
_ZN4Sass9Exception17ExtendAcrossMediaC1ESt6vectorINS_9BacktraceESaIS3_EENS_9ExtensionE T
_ZN4Sass9Exception17ExtendAcrossMediaC2ESt6vectorINS_9BacktraceESaIS3_EENS_9ExtensionE T
_ZN4Sass9Exception17ExtendAcrossMediaD0Ev W
_ZN4Sass9Exception17ExtendAcrossMediaD1Ev W
_ZN4Sass9Exception17ExtendAcrossMediaD2Ev W
_ZN4Sass9Exception17IncompatibleUnitsC1ENS_8UnitTypeES2_ T
_ZN4Sass9Exception17IncompatibleUnitsC1ERKNS_5UnitsES4_ T
_ZN4Sass9Exception17IncompatibleUnitsC2ENS_8UnitTypeES2_ T
_ZN4Sass9Exception17IncompatibleUnitsC2ERKNS_5UnitsES4_ T
_ZN4Sass9Exception17IncompatibleUnitsD0Ev W
_ZN4Sass9Exception17IncompatibleUnitsD1Ev W
_ZN4Sass9Exception17IncompatibleUnitsD2Ev W
_ZN4Sass9Exception17InvalidVarKwdTypeC1ENS_10SourceSpanESt6vectorINS_9BacktraceESaIS4_EENSt7__cxx1112basic_stringIcSt11char_traitsIcESaIcEEEPKNS_8ArgumentE T
_ZN4Sass9Exception17InvalidVarKwdTypeC2ENS_10SourceSpanESt6vectorINS_9BacktraceESaIS4_EENSt7__cxx1112basic_stringIcSt11char_traitsIcESaIcEEEPKNS_8ArgumentE T
_ZN4Sass9Exception17InvalidVarKwdTypeD0Ev W
_ZN4Sass9Exception17InvalidVarKwdTypeD1Ev W
_ZN4Sass9Exception17InvalidVarKwdTypeD2Ev W
_ZN4Sass9Exception17NestingLimitErrorC1ENS_10SourceSpanESt6vectorINS_9BacktraceESaIS4_EENSt7__cxx1112basic_stringIcSt11char_traitsIcESaIcEEE T
_ZN4Sass9Exception17NestingLimitErrorC2ENS_10SourceSpanESt6vectorINS_9BacktraceESaIS4_EENSt7__cxx1112basic_stringIcSt11char_traitsIcESaIcEEE T
_ZN4Sass9Exception17NestingLimitErrorD0Ev W
_ZN4Sass9Exception17NestingLimitErrorD1Ev W
_ZN4Sass9Exception17NestingLimitErrorD2Ev W
_ZN4Sass9Exception17UnsatisfiedExtendC1ESt6vectorINS_9BacktraceESaIS3_EENS_9ExtensionE T
_ZN4Sass9Exception17UnsatisfiedExtendC2ESt6vectorINS_9BacktraceESaIS3_EENS_9ExtensionE T
_ZN4Sass9Exception17UnsatisfiedExtendD0Ev W
_ZN4Sass9Exception17UnsatisfiedExtendD1Ev W
_ZN4Sass9Exception17UnsatisfiedExtendD2Ev W
_ZN4Sass9Exception17ZeroDivisionErrorC1ERKNS_10ExpressionES4_ T
_ZN4Sass9Exception17ZeroDivisionErrorC2ERKNS_10ExpressionES4_ T
_ZN4Sass9Exception17ZeroDivisionErrorD0Ev W
_ZN4Sass9Exception17ZeroDivisionErrorD1Ev W
_ZN4Sass9Exception17ZeroDivisionErrorD2Ev W
_ZN4Sass9Exception18UndefinedOperationC1EPKNS_10ExpressionES4_7Sass_OP T
_ZN4Sass9Exception18UndefinedOperationC2EPKNS_10ExpressionES4_7Sass_OP T
_ZN4Sass9Exception18UndefinedOperationD0Ev W
_ZN4Sass9Exception18UndefinedOperationD1Ev W
_ZN4Sass9Exception18UndefinedOperationD2Ev W
_ZN4Sass9Exception19InvalidArgumentTypeC1ENS_10SourceSpanESt6vectorINS_9BacktraceESaIS4_EENSt7__cxx1112basic_stringIcSt11char_traitsIcESaIcEEESC_SC_PKNS_5ValueE T
_ZN4Sass9Exception19InvalidArgumentTypeC2ENS_10SourceSpanESt6vectorINS_9BacktraceESaIS4_EENSt7__cxx1112basic_stringIcSt11char_traitsIcESaIcEEESC_SC_PKNS_5ValueE T
_ZN4Sass9Exception19InvalidArgumentTypeD0Ev W
_ZN4Sass9Exception19InvalidArgumentTypeD1Ev W
_ZN4Sass9Exception19InvalidArgumentTypeD2Ev W
_ZN4Sass9Exception20InvalidNullOperationC1EPKNS_10ExpressionES4_7Sass_OP T
_ZN4Sass9Exception20InvalidNullOperationC2EPKNS_10ExpressionES4_7Sass_OP T
_ZN4Sass9Exception20InvalidNullOperationD0Ev W
_ZN4Sass9Exception20InvalidNullOperationD1Ev W
_ZN4Sass9Exception20InvalidNullOperationD2Ev W
_ZN4Sass9Exception21AlphaChannelsNotEqualC1EPKNS_10ExpressionES4_7Sass_OP T
_ZN4Sass9Exception21AlphaChannelsNotEqualC2EPKNS_10ExpressionES4_7Sass_OP T
_ZN4Sass9Exception21AlphaChannelsNotEqualD0Ev W
_ZN4Sass9Exception21AlphaChannelsNotEqualD1Ev W
_ZN4Sass9Exception21AlphaChannelsNotEqualD2Ev W
_ZN4Sass9Exception4BaseC1ENS_10SourceSpanENSt7__cxx1112basic_stringIcSt11char_traitsIcESaIcEEESt6vectorINS_9BacktraceESaISA_EE T
_ZN4Sass9Exception4BaseC2ENS_10SourceSpanENSt7__cxx1112basic_stringIcSt11char_traitsIcESaIcEEESt6vectorINS_9BacktraceESaISA_EE T
_ZN4Sass9Exception4BaseD0Ev W
_ZN4Sass9Exception4BaseD1Ev W
_ZN4Sass9Exception4BaseD2Ev W
_ZN4Sass9ExtensionaSERKS0_ W
_ZN4Sass9ExtensionC1ERKS0_ W
_ZN4Sass9ExtensionC2ERKS0_ W
_ZN4Sass9ExtensionD1Ev W
_ZN4Sass9ExtensionD2Ev W
_ZN4Sass9Functions10adjust_hueERNS_11EnvironmentINS_10SharedImplINS_8AST_NodeEEEEES6_RNS_7ContextEPKcNS_10SourceSpanERSt6vectorINS_9BacktraceESaISD_EESC_INS2_INS_12SelectorListEEESaISI_EESK_ T
_ZN4Sass9Functions10append_sigE D 8
_ZN4Sass9Functions10comparableERNS_11EnvironmentINS_10SharedImplINS_8AST_NodeEEEEES6_RNS_7ContextEPKcNS_10SourceSpanERSt6vectorINS_9BacktraceESaISD_EESC_INS2_INS_12SelectorListEEESaISI_EESK_ T
_ZN4Sass9Functions10complementERNS_11EnvironmentINS_10SharedImplINS_8AST_NodeEEEEES6_RNS_7ContextEPKcNS_10SourceSpanERSt6vectorINS_9BacktraceESaISD_EESC_INS2_INS_12SelectorListEEESaISI_EESK_ T
_ZN4Sass9Functions10darken_sigE D 8
_ZN4Sass9Functions10desaturateERNS_11EnvironmentINS_10SharedImplINS_8AST_NodeEEEEES6_RNS_7ContextEPKcNS_10SourceSpanERSt6vectorINS_9BacktraceESaISD_EESC_INS2_INS_12SelectorListEEESaISI_EESK_ T
_ZN4Sass9Functions10ie_hex_strERNS_11EnvironmentINS_10SharedImplINS_8AST_NodeEEEEES6_RNS_7ContextEPKcNS_10SourceSpanERSt6vectorINS_9BacktraceESaISD_EESC_INS2_INS_12SelectorListEEESaISI_EESK_ T
_ZN4Sass9Functions10invert_sigE D 8
_ZN4Sass9Functions10length_sigE D 8
_ZN4Sass9Functions10map_removeERNS_11EnvironmentINS_10SharedImplINS_8AST_NodeEEEEES6_RNS_7ContextEPKcNS_10SourceSpanERSt6vectorINS_9BacktraceESaISD_EESC_INS2_INS_12SelectorListEEESaISI_EESK_ T
_ZN4Sass9Functions10map_valuesERNS_11EnvironmentINS_10SharedImplINS_8AST_NodeEEEEES6_RNS_7ContextEPKcNS_10SourceSpanERSt6vectorINS_9BacktraceESaISD_EESC_INS2_INS_12SelectorListEEESaISI_EESK_ T
_ZN4Sass9Functions10percentageERNS_11EnvironmentINS_10SharedImplINS_8AST_NodeEEEEES6_RNS_7ContextEPKcNS_10SourceSpanERSt6vectorINS_9BacktraceESaISD_EESC_INS2_INS_12SelectorListEEESaISI_EESK_ T
_ZN4Sass9Functions10random_sigE D 8
_ZN4Sass9Functions10rgba_2_sigE D 8
_ZN4Sass9Functions10rgba_4_sigE D 8
_ZN4Sass9Functions10sass_quoteERNS_11EnvironmentINS_10SharedImplINS_8AST_NodeEEEEES6_RNS_7ContextEPKcNS_10SourceSpanERSt6vectorINS_9BacktraceESaISD_EESC_INS2_INS_12SelectorListEEESaISI_EESK_ T
_ZN4Sass9Functions10saturationERNS_11EnvironmentINS_10SharedImplINS_8AST_NodeEEEEES6_RNS_7ContextEPKcNS_10SourceSpanERSt6vectorINS_9BacktraceESaISD_EESC_INS2_INS_12SelectorListEEESaISI_EESK_ T
_ZN4Sass9Functions10str_insertERNS_11EnvironmentINS_10SharedImplINS_8AST_NodeEEEEES6_RNS_7ContextEPKcNS_10SourceSpanERSt6vectorINS_9BacktraceESaISD_EESC_INS2_INS_12SelectorListEEESaISI_EESK_ T
_ZN4Sass9Functions10str_lengthERNS_11EnvironmentINS_10SharedImplINS_8AST_NodeEEEEES6_RNS_7ContextEPKcNS_10SourceSpanERSt6vectorINS_9BacktraceESaISD_EESC_INS2_INS_12SelectorListEEESaISI_EESK_ T
_ZN4Sass9Functions11fade_in_sigE D 8
_ZN4Sass9Functions11get_arg_selERKNSt7__cxx1112basic_stringIcSt11char_traitsIcESaIcEEERNS_11EnvironmentINS_10SharedImplINS_8AST_NodeEEEEEPKcNS_10SourceSpanESt6vectorINS_9BacktraceESaISJ_EERNS_7ContextE T
_ZN4Sass9Functions11get_arg_valERKNSt7__cxx1112basic_stringIcSt11char_traitsIcESaIcEEERNS_11EnvironmentINS_10SharedImplINS_8AST_NodeEEEEEPKcNS_10SourceSpanESt6vectorINS_9BacktraceESaISJ_EE T
_ZN4Sass9Functions11inspect_sigE D 8
_ZN4Sass9Functions11lighten_sigE D 8
_ZN4Sass9Functions11map_get_sigE D 8
_ZN4Sass9Functions11map_has_keyERNS_11EnvironmentINS_10SharedImplINS_8AST_NodeEEEEES6_RNS_7ContextEPKcNS_10SourceSpanERSt6vectorINS_9BacktraceESaISD_EESC_INS2_INS_12SelectorListEEESaISI_EESK_ T
_ZN4Sass9Functions11opacify_sigE D 8
_ZN4Sass9Functions11opacity_sigE D 8
_ZN4Sass9Functions11scale_colorERNS_11EnvironmentINS_10SharedImplINS_8AST_NodeEEEEES6_RNS_7ContextEPKcNS_10SourceSpanERSt6vectorINS_9BacktraceESaISD_EESC_INS2_INS_12SelectorListEEESaISI_EESK_ T
_ZN4Sass9Functions11set_nth_sigE D 8
_ZN4Sass9Functions11type_of_sigE D 8
_ZN4Sass9Functions11unquote_sigE D 8
_ZN4Sass9Functions12adjust_colorERNS_11EnvironmentINS_10SharedImplINS_8AST_NodeEEEEES6_RNS_7ContextEPKcNS_10SourceSpanERSt6vectorINS_9BacktraceESaISD_EESC_INS2_INS_12SelectorListEEESaISI_EESK_ T
_ZN4Sass9Functions12change_colorERNS_11EnvironmentINS_10SharedImplINS_8AST_NodeEEEEES6_RNS_7ContextEPKcNS_10SourceSpanERSt6vectorINS_9BacktraceESaISD_EESC_INS2_INS_12SelectorListEEESaISI_EESK_ T
_ZN4Sass9Functions12fade_out_sigE D 8
_ZN4Sass9Functions12get_arg_selsERKNSt7__cxx1112basic_stringIcSt11char_traitsIcESaIcEEERNS_11EnvironmentINS_10SharedImplINS_8AST_NodeEEEEEPKcNS_10SourceSpanESt6vectorINS_9BacktraceESaISJ_EERNS_7ContextE T
_ZN4Sass9Functions12get_functionERNS_11EnvironmentINS_10SharedImplINS_8AST_NodeEEEEES6_RNS_7ContextEPKcNS_10SourceSpanERSt6vectorINS_9BacktraceESaISD_EESC_INS2_INS_12SelectorListEEESaISI_EESK_ T
_ZN4Sass9Functions12is_bracketedERNS_11EnvironmentINS_10SharedImplINS_8AST_NodeEEEEES6_RNS_7ContextEPKcNS_10SourceSpanERSt6vectorINS_9BacktraceESaISD_EESC_INS2_INS_12SelectorListEEESaISI_EESK_ T
_ZN4Sass9Functions12keywords_sigE D 8
_ZN4Sass9Functions12map_keys_sigE D 8
_ZN4Sass9Functions12mixin_existsERNS_11EnvironmentINS_10SharedImplINS_8AST_NodeEEEEES6_RNS_7ContextEPKcNS_10SourceSpanERSt6vectorINS_9BacktraceESaISD_EESC_INS2_INS_12SelectorListEEESaISI_EESK_ T
_ZN4Sass9Functions12sass_unquoteERNS_11EnvironmentINS_10SharedImplINS_8AST_NodeEEEEES6_RNS_7ContextEPKcNS_10SourceSpanERSt6vectorINS_9BacktraceESaISD_EESC_INS2_INS_12SelectorListEEESaISI_EESK_ T
_ZN4Sass9Functions12saturate_sigE D 8
_ZN4Sass9Functions12unitless_sigE D 8
_ZN4Sass9Functions13function_nameB5cxx11EPKc T
_ZN4Sass9Functions13grayscale_sigE D 8
_ZN4Sass9Functions13lightness_sigE D 8
_ZN4Sass9Functions13map_merge_sigE D 8
_ZN4Sass9Functions13selector_nestERNS_11EnvironmentINS_10SharedImplINS_8AST_NodeEEEEES6_RNS_7ContextEPKcNS_10SourceSpanERSt6vectorINS_9BacktraceESaISD_EESC_INS2_INS_12SelectorListEEESaISI_EESK_ T
_ZN4Sass9Functions13str_index_sigE D 8
_ZN4Sass9Functions13str_slice_sigE D 8
_ZN4Sass9Functions13to_lower_caseERNS_11EnvironmentINS_10SharedImplINS_8AST_NodeEEEEES6_RNS_7ContextEPKcNS_10SourceSpanERSt6vectorINS_9BacktraceESaISD_EESC_INS2_INS_12SelectorListEEESaISI_EESK_ T
_ZN4Sass9Functions13to_upper_caseERNS_11EnvironmentINS_10SharedImplINS_8AST_NodeEEEEES6_RNS_7ContextEPKcNS_10SourceSpanERSt6vectorINS_9BacktraceESaISD_EESC_INS2_INS_12SelectorListEEESaISI_EESK_ T
_ZN4Sass9Functions13unique_id_sigE D 8
_ZN4Sass9Functions14adjust_hue_sigE D 8
_ZN4Sass9Functions14comparable_sigE D 8
_ZN4Sass9Functions14complement_sigE D 8
_ZN4Sass9Functions14content_existsERNS_11EnvironmentINS_10SharedImplINS_8AST_NodeEEEEES6_RNS_7ContextEPKcNS_10SourceSpanERSt6vectorINS_9BacktraceESaISD_EESC_INS2_INS_12SelectorListEEESaISI_EESK_ T
_ZN4Sass9Functions14desaturate_sigE D 8
_ZN4Sass9Functions14feature_existsERNS_11EnvironmentINS_10SharedImplINS_8AST_NodeEEEEES6_RNS_7ContextEPKcNS_10SourceSpanERSt6vectorINS_9BacktraceESaISD_EESC_INS2_INS_12SelectorListEEESaISI_EESK_ T
_ZN4Sass9Functions14ie_hex_str_sigE D 8
_ZN4Sass9Functions14list_separatorERNS_11EnvironmentINS_10SharedImplINS_8AST_NodeEEEEES6_RNS_7ContextEPKcNS_10SourceSpanERSt6vectorINS_9BacktraceESaISD_EESC_INS2_INS_12SelectorListEEESaISI_EESK_ T
_ZN4Sass9Functions14map_remove_sigE D 8
_ZN4Sass9Functions14map_values_sigE D 8
_ZN4Sass9Functions14percentage_sigE D 8
_ZN4Sass9Functions14saturation_sigE D 8
_ZN4Sass9Functions14selector_parseERNS_11EnvironmentINS_10SharedImplINS_8AST_NodeEEEEES6_RNS_7ContextEPKcNS_10SourceSpanERSt6vectorINS_9BacktraceESaISD_EESC_INS2_INS_12SelectorListEEESaISI_EESK_ T
_ZN4Sass9Functions14selector_unifyERNS_11EnvironmentINS_10SharedImplINS_8AST_NodeEEEEES6_RNS_7ContextEPKcNS_10SourceSpanERSt6vectorINS_9BacktraceESaISD_EESC_INS2_INS_12SelectorListEEESaISI_EESK_ T
_ZN4Sass9Functions14str_insert_sigE D 8
_ZN4Sass9Functions14str_length_sigE D 8
_ZN4Sass9Functions14transparentizeERNS_11EnvironmentINS_10SharedImplINS_8AST_NodeEEEEES6_RNS_7ContextEPKcNS_10SourceSpanERSt6vectorINS_9BacktraceESaISD_EESC_INS2_INS_12SelectorListEEESaISI_EESK_ T
_ZN4Sass9Functions15function_existsERNS_11EnvironmentINS_10SharedImplINS_8AST_NodeEEEEES6_RNS_7ContextEPKcNS_10SourceSpanERSt6vectorINS_9BacktraceESaISD_EESC_INS2_INS_12SelectorListEEESaISI_EESK_ T
_ZN4Sass9Functions15map_has_key_sigE D 8
_ZN4Sass9Functions15scale_color_sigE D 8
_ZN4Sass9Functions15selector_appendERNS_11EnvironmentINS_10SharedImplINS_8AST_NodeEEEEES6_RNS_7ContextEPKcNS_10SourceSpanERSt6vectorINS_9BacktraceESaISD_EESC_INS2_INS_12SelectorListEEESaISI_EESK_ T
_ZN4Sass9Functions15selector_extendERNS_11EnvironmentINS_10SharedImplINS_8AST_NodeEEEEES6_RNS_7ContextEPKcNS_10SourceSpanERSt6vectorINS_9BacktraceESaISD_EESC_INS2_INS_12SelectorListEEESaISI_EESK_ T
_ZN4Sass9Functions15string_argumentENS_10SharedImplINS_8AST_NodeEEE T
_ZN4Sass9Functions15variable_existsERNS_11EnvironmentINS_10SharedImplINS_8AST_NodeEEEEES6_RNS_7ContextEPKcNS_10SourceSpanERSt6vectorINS_9BacktraceESaISD_EESC_INS2_INS_12SelectorListEEESaISI_EESK_ T
_ZN4Sass9Functions16adjust_color_sigE D 8
_ZN4Sass9Functions16change_color_sigE D 8
_ZN4Sass9Functions16get_function_sigE D 8
_ZN4Sass9Functions16is_bracketed_sigE D 8
_ZN4Sass9Functions16is_superselectorERNS_11EnvironmentINS_10SharedImplINS_8AST_NodeEEEEES6_RNS_7ContextEPKcNS_10SourceSpanERSt6vectorINS_9BacktraceESaISD_EESC_INS2_INS_12SelectorListEEESaISI_EESK_ T
_ZN4Sass9Functions16mixin_exists_sigE D 8
_ZN4Sass9Functions16selector_replaceERNS_11EnvironmentINS_10SharedImplINS_8AST_NodeEEEEES6_RNS_7ContextEPKcNS_10SourceSpanERSt6vectorINS_9BacktraceESaISD_EESC_INS2_INS_12SelectorListEEESaISI_EESK_ T
_ZN4Sass9Functions16simple_selectorsERNS_11EnvironmentINS_10SharedImplINS_8AST_NodeEEEEES6_RNS_7ContextEPKcNS_10SourceSpanERSt6vectorINS_9BacktraceESaISD_EESC_INS2_INS_12SelectorListEEESaISI_EESK_ T
_ZN4Sass9Functions17handle_utf8_errorERKNS_10SourceSpanESt6vectorINS_9BacktraceESaIS5_EE T
_ZN4Sass9Functions17selector_nest_sigE D 8
_ZN4Sass9Functions17to_lower_case_sigE D 8
_ZN4Sass9Functions17to_upper_case_sigE D 8
_ZN4Sass9Functions18content_exists_sigE D 8
_ZN4Sass9Functions18feature_exists_sigE D 8
_ZN4Sass9Functions18list_separator_sigE D 8
_ZN4Sass9Functions18selector_parse_sigE D 8
_ZN4Sass9Functions18selector_unify_sigE D 8
_ZN4Sass9Functions18transparentize_sigE D 8
_ZN4Sass9Functions19function_exists_sigE D 8
_ZN4Sass9Functions19selector_append_sigE D 8
_ZN4Sass9Functions19selector_extend_sigE D 8
_ZN4Sass9Functions19variable_exists_sigE D 8
_ZN4Sass9Functions20is_superselector_sigE D 8
_ZN4Sass9Functions20selector_replace_sigE D 8
_ZN4Sass9Functions20simple_selectors_sigE D 8
_ZN4Sass9Functions22global_variable_existsERNS_11EnvironmentINS_10SharedImplINS_8AST_NodeEEEEES6_RNS_7ContextEPKcNS_10SourceSpanERSt6vectorINS_9BacktraceESaISD_EESC_INS2_INS_12SelectorListEEESaISI_EESK_ T
_ZN4Sass9Functions26global_variable_exists_sigE D 8
_ZN4Sass9Functions30hsla_alpha_percent_deprecationERKNS_10SourceSpanENSt7__cxx1112basic_stringIcSt11char_traitsIcESaIcEEE T
_ZN4Sass9Functions3absERNS_11EnvironmentINS_10SharedImplINS_8AST_NodeEEEEES6_RNS_7ContextEPKcNS_10SourceSpanERSt6vectorINS_9BacktraceESaISD_EESC_INS2_INS_12SelectorListEEESaISI_EESK_ T
_ZN4Sass9Functions3hslERNS_11EnvironmentINS_10SharedImplINS_8AST_NodeEEEEES6_RNS_7ContextEPKcNS_10SourceSpanERSt6vectorINS_9BacktraceESaISD_EESC_INS2_INS_12SelectorListEEESaISI_EESK_ T
_ZN4Sass9Functions3hueERNS_11EnvironmentINS_10SharedImplINS_8AST_NodeEEEEES6_RNS_7ContextEPKcNS_10SourceSpanERSt6vectorINS_9BacktraceESaISD_EESC_INS2_INS_12SelectorListEEESaISI_EESK_ T
_ZN4Sass9Functions3maxERNS_11EnvironmentINS_10SharedImplINS_8AST_NodeEEEEES6_RNS_7ContextEPKcNS_10SourceSpanERSt6vectorINS_9BacktraceESaISD_EESC_INS2_INS_12SelectorListEEESaISI_EESK_ T
_ZN4Sass9Functions3minERNS_11EnvironmentINS_10SharedImplINS_8AST_NodeEEEEES6_RNS_7ContextEPKcNS_10SourceSpanERSt6vectorINS_9BacktraceESaISD_EESC_INS2_INS_12SelectorListEEESaISI_EESK_ T
_ZN4Sass9Functions3mixERNS_11EnvironmentINS_10SharedImplINS_8AST_NodeEEEEES6_RNS_7ContextEPKcNS_10SourceSpanERSt6vectorINS_9BacktraceESaISD_EESC_INS2_INS_12SelectorListEEESaISI_EESK_ T
_ZN4Sass9Functions3nthERNS_11EnvironmentINS_10SharedImplINS_8AST_NodeEEEEES6_RNS_7ContextEPKcNS_10SourceSpanERSt6vectorINS_9BacktraceESaISD_EESC_INS2_INS_12SelectorListEEESaISI_EESK_ T
_ZN4Sass9Functions3redERNS_11EnvironmentINS_10SharedImplINS_8AST_NodeEEEEES6_RNS_7ContextEPKcNS_10SourceSpanERSt6vectorINS_9BacktraceESaISD_EESC_INS2_INS_12SelectorListEEESaISI_EESK_ T
_ZN4Sass9Functions3rgbERNS_11EnvironmentINS_10SharedImplINS_8AST_NodeEEEEES6_RNS_7ContextEPKcNS_10SourceSpanERSt6vectorINS_9BacktraceESaISD_EESC_INS2_INS_12SelectorListEEESaISI_EESK_ T
_ZN4Sass9Functions3zipERNS_11EnvironmentINS_10SharedImplINS_8AST_NodeEEEEES6_RNS_7ContextEPKcNS_10SourceSpanERSt6vectorINS_9BacktraceESaISD_EESC_INS2_INS_12SelectorListEEESaISI_EESK_ T
_ZN4Sass9Functions4blueERNS_11EnvironmentINS_10SharedImplINS_8AST_NodeEEEEES6_RNS_7ContextEPKcNS_10SourceSpanERSt6vectorINS_9BacktraceESaISD_EESC_INS2_INS_12SelectorListEEESaISI_EESK_ T
_ZN4Sass9Functions4callERNS_11EnvironmentINS_10SharedImplINS_8AST_NodeEEEEES6_RNS_7ContextEPKcNS_10SourceSpanERSt6vectorINS_9BacktraceESaISD_EESC_INS2_INS_12SelectorListEEESaISI_EESK_ T
_ZN4Sass9Functions4ceilERNS_11EnvironmentINS_10SharedImplINS_8AST_NodeEEEEES6_RNS_7ContextEPKcNS_10SourceSpanERSt6vectorINS_9BacktraceESaISD_EESC_INS2_INS_12SelectorListEEESaISI_EESK_ T
_ZN4Sass9Functions4hslaERNS_11EnvironmentINS_10SharedImplINS_8AST_NodeEEEEES6_RNS_7ContextEPKcNS_10SourceSpanERSt6vectorINS_9BacktraceESaISD_EESC_INS2_INS_12SelectorListEEESaISI_EESK_ T
_ZN4Sass9Functions4joinERNS_11EnvironmentINS_10SharedImplINS_8AST_NodeEEEEES6_RNS_7ContextEPKcNS_10SourceSpanERSt6vectorINS_9BacktraceESaISD_EESC_INS2_INS_12SelectorListEEESaISI_EESK_ T
_ZN4Sass9Functions4unitERNS_11EnvironmentINS_10SharedImplINS_8AST_NodeEEEEES6_RNS_7ContextEPKcNS_10SourceSpanERSt6vectorINS_9BacktraceESaISD_EESC_INS2_INS_12SelectorListEEESaISI_EESK_ T
_ZN4Sass9Functions5alphaERNS_11EnvironmentINS_10SharedImplINS_8AST_NodeEEEEES6_RNS_7ContextEPKcNS_10SourceSpanERSt6vectorINS_9BacktraceESaISD_EESC_INS2_INS_12SelectorListEEESaISI_EESK_ T
_ZN4Sass9Functions5floorERNS_11EnvironmentINS_10SharedImplINS_8AST_NodeEEEEES6_RNS_7ContextEPKcNS_10SourceSpanERSt6vectorINS_9BacktraceESaISD_EESC_INS2_INS_12SelectorListEEESaISI_EESK_ T
_ZN4Sass9Functions5greenERNS_11EnvironmentINS_10SharedImplINS_8AST_NodeEEEEES6_RNS_7ContextEPKcNS_10SourceSpanERSt6vectorINS_9BacktraceESaISD_EESC_INS2_INS_12SelectorListEEESaISI_EESK_ T
_ZN4Sass9Functions5indexERNS_11EnvironmentINS_10SharedImplINS_8AST_NodeEEEEES6_RNS_7ContextEPKcNS_10SourceSpanERSt6vectorINS_9BacktraceESaISD_EESC_INS2_INS_12SelectorListEEESaISI_EESK_ T
_ZN4Sass9Functions5roundERNS_11EnvironmentINS_10SharedImplINS_8AST_NodeEEEEES6_RNS_7ContextEPKcNS_10SourceSpanERSt6vectorINS_9BacktraceESaISD_EESC_INS2_INS_12SelectorListEEESaISI_EESK_ T
_ZN4Sass9Functions6appendERNS_11EnvironmentINS_10SharedImplINS_8AST_NodeEEEEES6_RNS_7ContextEPKcNS_10SourceSpanERSt6vectorINS_9BacktraceESaISD_EESC_INS2_INS_12SelectorListEEESaISI_EESK_ T
_ZN4Sass9Functions6darkenERNS_11EnvironmentINS_10SharedImplINS_8AST_NodeEEEEES6_RNS_7ContextEPKcNS_10SourceSpanERSt6vectorINS_9BacktraceESaISD_EESC_INS2_INS_12SelectorListEEESaISI_EESK_ T
_ZN4Sass9Functions6if_sigE D 8
_ZN4Sass9Functions6invertERNS_11EnvironmentINS_10SharedImplINS_8AST_NodeEEEEES6_RNS_7ContextEPKcNS_10SourceSpanERSt6vectorINS_9BacktraceESaISD_EESC_INS2_INS_12SelectorListEEESaISI_EESK_ T
_ZN4Sass9Functions6lengthERNS_11EnvironmentINS_10SharedImplINS_8AST_NodeEEEEES6_RNS_7ContextEPKcNS_10SourceSpanERSt6vectorINS_9BacktraceESaISD_EESC_INS2_INS_12SelectorListEEESaISI_EESK_ T
_ZN4Sass9Functions6randomERNS_11EnvironmentINS_10SharedImplINS_8AST_NodeEEEEES6_RNS_7ContextEPKcNS_10SourceSpanERSt6vectorINS_9BacktraceESaISD_EESC_INS2_INS_12SelectorListEEESaISI_EESK_ T
_ZN4Sass9Functions6rgba_2ERNS_11EnvironmentINS_10SharedImplINS_8AST_NodeEEEEES6_RNS_7ContextEPKcNS_10SourceSpanERSt6vectorINS_9BacktraceESaISD_EESC_INS2_INS_12SelectorListEEESaISI_EESK_ T
_ZN4Sass9Functions6rgba_4ERNS_11EnvironmentINS_10SharedImplINS_8AST_NodeEEEEES6_RNS_7ContextEPKcNS_10SourceSpanERSt6vectorINS_9BacktraceESaISD_EESC_INS2_INS_12SelectorListEEESaISI_EESK_ T
_ZN4Sass9Functions7abs_sigE D 8
_ZN4Sass9Functions7get_argINS_10ExpressionEEEPT_RKNSt7__cxx1112basic_stringIcSt11char_traitsIcESaIcEEERNS_11EnvironmentINS_10SharedImplINS_8AST_NodeEEEEEPKcNS_10SourceSpanESt6vectorINS_9BacktraceESaISN_EE W
_ZN4Sass9Functions7get_argINS_15String_ConstantEEEPT_RKNSt7__cxx1112basic_stringIcSt11char_traitsIcESaIcEEERNS_11EnvironmentINS_10SharedImplINS_8AST_NodeEEEEEPKcNS_10SourceSpanESt6vectorINS_9BacktraceESaISN_EE W
_ZN4Sass9Functions7get_argINS_3MapEEEPT_RKNSt7__cxx1112basic_stringIcSt11char_traitsIcESaIcEEERNS_11EnvironmentINS_10SharedImplINS_8AST_NodeEEEEEPKcNS_10SourceSpanESt6vectorINS_9BacktraceESaISN_EE W
_ZN4Sass9Functions7get_argINS_4ListEEEPT_RKNSt7__cxx1112basic_stringIcSt11char_traitsIcESaIcEEERNS_11EnvironmentINS_10SharedImplINS_8AST_NodeEEEEEPKcNS_10SourceSpanESt6vectorINS_9BacktraceESaISN_EE W
_ZN4Sass9Functions7get_argINS_5ColorEEEPT_RKNSt7__cxx1112basic_stringIcSt11char_traitsIcESaIcEEERNS_11EnvironmentINS_10SharedImplINS_8AST_NodeEEEEEPKcNS_10SourceSpanESt6vectorINS_9BacktraceESaISN_EE W
_ZN4Sass9Functions7get_argINS_5ValueEEEPT_RKNSt7__cxx1112basic_stringIcSt11char_traitsIcESaIcEEERNS_11EnvironmentINS_10SharedImplINS_8AST_NodeEEEEEPKcNS_10SourceSpanESt6vectorINS_9BacktraceESaISN_EE W
_ZN4Sass9Functions7get_argINS_6NumberEEEPT_RKNSt7__cxx1112basic_stringIcSt11char_traitsIcESaIcEEERNS_11EnvironmentINS_10SharedImplINS_8AST_NodeEEEEEPKcNS_10SourceSpanESt6vectorINS_9BacktraceESaISN_EE W
_ZN4Sass9Functions7get_argINS_7BooleanEEEPT_RKNSt7__cxx1112basic_stringIcSt11char_traitsIcESaIcEEERNS_11EnvironmentINS_10SharedImplINS_8AST_NodeEEEEEPKcNS_10SourceSpanESt6vectorINS_9BacktraceESaISN_EE W
_ZN4Sass9Functions7GetSeedEv T
_ZN4Sass9Functions7hsl_sigE D 8
_ZN4Sass9Functions7hue_sigE D 8
_ZN4Sass9Functions7inspectERNS_11EnvironmentINS_10SharedImplINS_8AST_NodeEEEEES6_RNS_7ContextEPKcNS_10SourceSpanERSt6vectorINS_9BacktraceESaISD_EESC_INS2_INS_12SelectorListEEESaISI_EESK_ T
_ZN4Sass9Functions7lightenERNS_11EnvironmentINS_10SharedImplINS_8AST_NodeEEEEES6_RNS_7ContextEPKcNS_10SourceSpanERSt6vectorINS_9BacktraceESaISD_EESC_INS2_INS_12SelectorListEEESaISI_EESK_ T
_ZN4Sass9Functions7map_getERNS_11EnvironmentINS_10SharedImplINS_8AST_NodeEEEEES6_RNS_7ContextEPKcNS_10SourceSpanERSt6vectorINS_9BacktraceESaISD_EESC_INS2_INS_12SelectorListEEESaISI_EESK_ T
_ZN4Sass9Functions7max_sigE D 8
_ZN4Sass9Functions7min_sigE D 8
_ZN4Sass9Functions7mix_sigE D 8
_ZN4Sass9Functions7not_sigE D 8
_ZN4Sass9Functions7nth_sigE D 8
_ZN4Sass9Functions7opacifyERNS_11EnvironmentINS_10SharedImplINS_8AST_NodeEEEEES6_RNS_7ContextEPKcNS_10SourceSpanERSt6vectorINS_9BacktraceESaISD_EESC_INS2_INS_12SelectorListEEESaISI_EESK_ T
_ZN4Sass9Functions7red_sigE D 8
_ZN4Sass9Functions7rgb_sigE D 8
_ZN4Sass9Functions7sass_ifERNS_11EnvironmentINS_10SharedImplINS_8AST_NodeEEEEES6_RNS_7ContextEPKcNS_10SourceSpanERSt6vectorINS_9BacktraceESaISD_EESC_INS2_INS_12SelectorListEEESaISI_EESK_ T
_ZN4Sass9Functions7set_nthERNS_11EnvironmentINS_10SharedImplINS_8AST_NodeEEEEES6_RNS_7ContextEPKcNS_10SourceSpanERSt6vectorINS_9BacktraceESaISD_EESC_INS2_INS_12SelectorListEEESaISI_EESK_ T
_ZN4Sass9Functions7type_ofERNS_11EnvironmentINS_10SharedImplINS_8AST_NodeEEEEES6_RNS_7ContextEPKcNS_10SourceSpanERSt6vectorINS_9BacktraceESaISD_EESC_INS2_INS_12SelectorListEEESaISI_EESK_ T
_ZN4Sass9Functions7zip_sigE D 8
_ZN4Sass9Functions8blue_sigE D 8
_ZN4Sass9Functions8call_sigE D 8
_ZN4Sass9Functions8ceil_sigE D 8
_ZN4Sass9Functions8colormixERNS_7ContextERNS_10SourceSpanEPNS_5ColorES6_d T
_ZN4Sass9Functions8hsla_sigE D 8
_ZN4Sass9Functions8join_sigE D 8
_ZN4Sass9Functions8keywordsERNS_11EnvironmentINS_10SharedImplINS_8AST_NodeEEEEES6_RNS_7ContextEPKcNS_10SourceSpanERSt6vectorINS_9BacktraceESaISD_EESC_INS2_INS_12SelectorListEEESaISI_EESK_ T
_ZN4Sass9Functions8map_keysERNS_11EnvironmentINS_10SharedImplINS_8AST_NodeEEEEES6_RNS_7ContextEPKcNS_10SourceSpanERSt6vectorINS_9BacktraceESaISD_EESC_INS2_INS_12SelectorListEEESaISI_EESK_ T
_ZN4Sass9Functions8sass_notERNS_11EnvironmentINS_10SharedImplINS_8AST_NodeEEEEES6_RNS_7ContextEPKcNS_10SourceSpanERSt6vectorINS_9BacktraceESaISD_EESC_INS2_INS_12SelectorListEEESaISI_EESK_ T
_ZN4Sass9Functions8saturateERNS_11EnvironmentINS_10SharedImplINS_8AST_NodeEEEEES6_RNS_7ContextEPKcNS_10SourceSpanERSt6vectorINS_9BacktraceESaISD_EESC_INS2_INS_12SelectorListEEESaISI_EESK_ T
_ZN4Sass9Functions8unitlessERNS_11EnvironmentINS_10SharedImplINS_8AST_NodeEEEEES6_RNS_7ContextEPKcNS_10SourceSpanERSt6vectorINS_9BacktraceESaISD_EESC_INS2_INS_12SelectorListEEESaISI_EESK_ T
_ZN4Sass9Functions8unit_sigE D 8
_ZN4Sass9Functions9alpha_numERKNSt7__cxx1112basic_stringIcSt11char_traitsIcESaIcEEERNS_11EnvironmentINS_10SharedImplINS_8AST_NodeEEEEEPKcNS_10SourceSpanESt6vectorINS_9BacktraceESaISJ_EE T
_ZN4Sass9Functions9alpha_sigE D 8
_ZN4Sass9Functions9color_numERKNSt7__cxx1112basic_stringIcSt11char_traitsIcESaIcEEERNS_11EnvironmentINS_10SharedImplINS_8AST_NodeEEEEEPKcNS_10SourceSpanESt6vectorINS_9BacktraceESaISJ_EE T
_ZN4Sass9Functions9floor_sigE D 8
_ZN4Sass9Functions9get_arg_mERKNSt7__cxx1112basic_stringIcSt11char_traitsIcESaIcEEERNS_11EnvironmentINS_10SharedImplINS_8AST_NodeEEEEEPKcNS_10SourceSpanESt6vectorINS_9BacktraceESaISJ_EE T
_ZN4Sass9Functions9get_arg_nERKNSt7__cxx1112basic_stringIcSt11char_traitsIcESaIcEEERNS_11EnvironmentINS_10SharedImplINS_8AST_NodeEEEEEPKcNS_10SourceSpanESt6vectorINS_9BacktraceESaISJ_EE T
_ZN4Sass9Functions9get_arg_rERKNSt7__cxx1112basic_stringIcSt11char_traitsIcESaIcEEERNS_11EnvironmentINS_10SharedImplINS_8AST_NodeEEEEEPKcNS_10SourceSpanESt6vectorINS_9BacktraceESaISJ_EEdd T
_ZN4Sass9Functions9grayscaleERNS_11EnvironmentINS_10SharedImplINS_8AST_NodeEEEEES6_RNS_7ContextEPKcNS_10SourceSpanERSt6vectorINS_9BacktraceESaISD_EESC_INS2_INS_12SelectorListEEESaISI_EESK_ T
_ZN4Sass9Functions9green_sigE D 8
_ZN4Sass9Functions9index_sigE D 8
_ZN4Sass9Functions9lightnessERNS_11EnvironmentINS_10SharedImplINS_8AST_NodeEEEEES6_RNS_7ContextEPKcNS_10SourceSpanERSt6vectorINS_9BacktraceESaISD_EESC_INS2_INS_12SelectorListEEESaISI_EESK_ T
_ZN4Sass9Functions9map_mergeERNS_11EnvironmentINS_10SharedImplINS_8AST_NodeEEEEES6_RNS_7ContextEPKcNS_10SourceSpanERSt6vectorINS_9BacktraceESaISD_EESC_INS2_INS_12SelectorListEEESaISI_EESK_ T
_ZN4Sass9Functions9quote_sigE D 8
_ZN4Sass9Functions9round_sigE D 8
_ZN4Sass9Functions9str_indexERNS_11EnvironmentINS_10SharedImplINS_8AST_NodeEEEEES6_RNS_7ContextEPKcNS_10SourceSpanERSt6vectorINS_9BacktraceESaISD_EESC_INS2_INS_12SelectorListEEESaISI_EESK_ T
_ZN4Sass9Functions9str_sliceERNS_11EnvironmentINS_10SharedImplINS_8AST_NodeEEEEES6_RNS_7ContextEPKcNS_10SourceSpanERSt6vectorINS_9BacktraceESaISD_EESC_INS2_INS_12SelectorListEEESaISI_EESK_ T
_ZN4Sass9Functions9unique_idERNS_11EnvironmentINS_10SharedImplINS_8AST_NodeEEEEES6_RNS_7ContextEPKcNS_10SourceSpanERSt6vectorINS_9BacktraceESaISD_EESC_INS2_INS_12SelectorListEEESaISI_EESK_ T
_ZN4Sass9getChunksISt6vectorINS_10SharedImplINS_17SelectorComponentEEESaIS4_EEEES1_IS1_IT_SaIS7_EESaIS9_EERS9_SC_RKS7_PFbRKS9_SE_E W
_ZN4Sass9MediaRule7bubblesEv W
_ZN4Sass9MediaRule7performEPNS_9OperationINSt7__cxx1112basic_stringIcSt11char_traitsIcESaIcEEEEE W
_ZN4Sass9MediaRule7performEPNS_9OperationIP10Sass_ValueEE W
_ZN4Sass9MediaRule7performEPNS_9OperationIPNS_10ExpressionEEE W
_ZN4Sass9MediaRule7performEPNS_9OperationIPNS_17SupportsConditionEEE W
_ZN4Sass9MediaRule7performEPNS_9OperationIPNS_5ValueEEE W
_ZN4Sass9MediaRule7performEPNS_9OperationIPNS_8AST_NodeEEE W
_ZN4Sass9MediaRule7performEPNS_9OperationIPNS_8SelectorEEE W
_ZN4Sass9MediaRule7performEPNS_9OperationIPNS_9StatementEEE W
_ZN4Sass9MediaRule7performEPNS_9OperationIvEE W
_ZN4Sass9MediaRuleC1ENS_10SourceSpanENS_10SharedImplINS_5BlockEEE T
_ZN4Sass9MediaRuleC1EPKS0_ T
_ZN4Sass9MediaRuleC2ENS_10SourceSpanENS_10SharedImplINS_5BlockEEE T
_ZN4Sass9MediaRuleC2EPKS0_ T
_ZN4Sass9MediaRuleD0Ev W
_ZN4Sass9MediaRuleD1Ev W
_ZN4Sass9MediaRuleD2Ev W
_ZN4Sass9mustUnifyERKSt6vectorINS_10SharedImplINS_17SelectorComponentEEESaIS3_EES7_ T
_ZN4Sass9Operators10op_numbersE7Sass_OPRKNS_6NumberES4_20Sass_Inspect_OptionsRKNS_10SourceSpanEb T
_ZN4Sass9Operators10op_stringsENS_7OperandERNS_5ValueES3_20Sass_Inspect_OptionsRKNS_10SourceSpanEb T
_ZN4Sass9Operators15op_color_numberE7Sass_OPRKNS_10Color_RGBAERKNS_6NumberE20Sass_Inspect_OptionsRKNS_10SourceSpanEb T
_ZN4Sass9Operators15op_number_colorE7Sass_OPRKNS_6NumberERKNS_10Color_RGBAE20Sass_Inspect_OptionsRKNS_10SourceSpanEb T
_ZN4Sass9Operators20op_color_deprecationE7Sass_OPNSt7__cxx1112basic_stringIcSt11char_traitsIcESaIcEEES7_RKNS_10SourceSpanE T
_ZN4Sass9Operators2eqENS_10SharedImplINS_10ExpressionEEES3_ T
_ZN4Sass9Operators2gtENS_10SharedImplINS_10ExpressionEEES3_ T
_ZN4Sass9Operators2ltENS_10SharedImplINS_10ExpressionEEES3_ T
_ZN4Sass9Operators3addEdd W
_ZN4Sass9Operators3cmpENS_10SharedImplINS_10ExpressionEEES3_7Sass_OP T
_ZN4Sass9Operators3divEdd W
_ZN4Sass9Operators3gteENS_10SharedImplINS_10ExpressionEEES3_ T
_ZN4Sass9Operators3lteENS_10SharedImplINS_10ExpressionEEES3_ T
_ZN4Sass9Operators3modEdd W
_ZN4Sass9Operators3mulEdd W
_ZN4Sass9Operators3neqENS_10SharedImplINS_10ExpressionEEES3_ T
_ZN4Sass9Operators3opsE D 68
_ZN4Sass9Operators3subEdd W
_ZN4Sass9Operators9op_colorsE7Sass_OPRKNS_10Color_RGBAES4_20Sass_Inspect_OptionsRKNS_10SourceSpanEb T
_ZN4Sass9Parameter7performEPNS_9OperationINSt7__cxx1112basic_stringIcSt11char_traitsIcESaIcEEEEE W
_ZN4Sass9Parameter7performEPNS_9OperationIP10Sass_ValueEE W
_ZN4Sass9Parameter7performEPNS_9OperationIPNS_10ExpressionEEE W
_ZN4Sass9Parameter7performEPNS_9OperationIPNS_17SupportsConditionEEE W
_ZN4Sass9Parameter7performEPNS_9OperationIPNS_5ValueEEE W
_ZN4Sass9Parameter7performEPNS_9OperationIPNS_8AST_NodeEEE W
_ZN4Sass9Parameter7performEPNS_9OperationIPNS_8SelectorEEE W
_ZN4Sass9Parameter7performEPNS_9OperationIPNS_9StatementEEE W
_ZN4Sass9Parameter7performEPNS_9OperationIvEE W
_ZN4Sass9ParameterC1ENS_10SourceSpanENSt7__cxx1112basic_stringIcSt11char_traitsIcESaIcEEENS_10SharedImplINS_10ExpressionEEEb T
_ZN4Sass9ParameterC1EPKS0_ T
_ZN4Sass9ParameterC2ENS_10SourceSpanENSt7__cxx1112basic_stringIcSt11char_traitsIcESaIcEEENS_10SharedImplINS_10ExpressionEEEb T
_ZN4Sass9ParameterC2EPKS0_ T
_ZN4Sass9ParameterD0Ev W
_ZN4Sass9ParameterD1Ev W
_ZN4Sass9ParameterD2Ev W
_ZN4Sass9permutateINS_10SharedImplINS_15ComplexSelectorEEEEESt6vectorIS4_IT_SaIS5_EESaIS7_EERKS9_ W
_ZN4Sass9permutateINS_9ExtensionEEESt6vectorIS2_IT_SaIS3_EESaIS5_EERKS7_ W
_ZN4Sass9permutateISt6vectorINS_10SharedImplINS_17SelectorComponentEEESaIS4_EEEES1_IS1_IT_SaIS7_EESaIS9_EERKSB_ W
_ZN4Sass9sass2scssERKNSt7__cxx1112basic_stringIcSt11char_traitsIcESaIcEEEi T
_ZN4Sass9SharedObj5taintE B 1
_ZN4Sass9SharedPtr11decRefCountEv W
_ZN4Sass9SourceMap13render_srcmapB5cxx11ERNS_7ContextE T
_ZN4Sass9SourceMap16add_open_mappingEPKNS_8AST_NodeE T
_ZN4Sass9SourceMap17add_close_mappingEPKNS_8AST_NodeE T
_ZN4Sass9SourceMap18serialize_mappingsB5cxx11Ev T
_ZN4Sass9SourceMap5remapERKNS_10SourceSpanE T
_ZN4Sass9SourceMap6appendERKNS_12OutputBufferE T
_ZN4Sass9SourceMap6appendERKNS_6OffsetE T
_ZN4Sass9SourceMap7prependERKNS_12OutputBufferE T
_ZN4Sass9SourceMap7prependERKNS_6OffsetE T
_ZN4Sass9SourceMapC1ERKNSt7__cxx1112basic_stringIcSt11char_traitsIcESaIcEEE T
_ZN4Sass9SourceMapC1Ev T
_ZN4Sass9SourceMapC2ERKNSt7__cxx1112basic_stringIcSt11char_traitsIcESaIcEEE T
_ZN4Sass9SourceMapC2Ev T
_ZN4Sass9Statement11has_contentEv T
_ZN4Sass9Statement7bubblesEv T
_ZN4Sass9StatementC1ENS_10SourceSpanENS0_4TypeEm T
_ZN4Sass9StatementC1EPKS0_ T
_ZN4Sass9StatementC2ENS_10SourceSpanENS0_4TypeEm T
_ZN4Sass9StatementC2EPKS0_ T
_ZN4Sass9str_rtrimERNSt7__cxx1112basic_stringIcSt11char_traitsIcESaIcEEERKS5_ T
_ZN4Sass9StyleRule7performEPNS_9OperationINSt7__cxx1112basic_stringIcSt11char_traitsIcESaIcEEEEE W
_ZN4Sass9StyleRule7performEPNS_9OperationIP10Sass_ValueEE W
_ZN4Sass9StyleRule7performEPNS_9OperationIPNS_10ExpressionEEE W
_ZN4Sass9StyleRule7performEPNS_9OperationIPNS_17SupportsConditionEEE W
_ZN4Sass9StyleRule7performEPNS_9OperationIPNS_5ValueEEE W
_ZN4Sass9StyleRule7performEPNS_9OperationIPNS_8AST_NodeEEE W
_ZN4Sass9StyleRule7performEPNS_9OperationIPNS_8SelectorEEE W
_ZN4Sass9StyleRule7performEPNS_9OperationIPNS_9StatementEEE W
_ZN4Sass9StyleRule7performEPNS_9OperationIvEE W
_ZN4Sass9StyleRuleC1ENS_10SourceSpanENS_10SharedImplINS_12SelectorListEEENS2_INS_5BlockEEE T
_ZN4Sass9StyleRuleC1EPKS0_ T
_ZN4Sass9StyleRuleC2ENS_10SourceSpanENS_10SharedImplINS_12SelectorListEEENS2_INS_5BlockEEE T
_ZN4Sass9StyleRuleC2EPKS0_ T
_ZN4Sass9StyleRuleD0Ev W
_ZN4Sass9StyleRuleD1Ev W
_ZN4Sass9StyleRuleD2Ev W
_ZN4Sass9SynthFile13getSourceSpanEv W
_ZN4Sass9SynthFileD0Ev W
_ZN4Sass9SynthFileD1Ev W
_ZN4Sass9SynthFileD2Ev W
_ZN4Sass9WhileRule7performEPNS_9OperationINSt7__cxx1112basic_stringIcSt11char_traitsIcESaIcEEEEE W
_ZN4Sass9WhileRule7performEPNS_9OperationIP10Sass_ValueEE W
_ZN4Sass9WhileRule7performEPNS_9OperationIPNS_10ExpressionEEE W
_ZN4Sass9WhileRule7performEPNS_9OperationIPNS_17SupportsConditionEEE W
_ZN4Sass9WhileRule7performEPNS_9OperationIPNS_5ValueEEE W
_ZN4Sass9WhileRule7performEPNS_9OperationIPNS_8AST_NodeEEE W
_ZN4Sass9WhileRule7performEPNS_9OperationIPNS_8SelectorEEE W
_ZN4Sass9WhileRule7performEPNS_9OperationIPNS_9StatementEEE W
_ZN4Sass9WhileRule7performEPNS_9OperationIvEE W
_ZN4Sass9WhileRuleC1ENS_10SourceSpanENS_10SharedImplINS_10ExpressionEEENS2_INS_5BlockEEE T
_ZN4Sass9WhileRuleC1EPKS0_ T
_ZN4Sass9WhileRuleC2ENS_10SourceSpanENS_10SharedImplINS_10ExpressionEEENS2_INS_5BlockEEE T
_ZN4Sass9WhileRuleC2EPKS0_ T
_ZN4Sass9WhileRuleD0Ev W
_ZN4Sass9WhileRuleD1Ev W
_ZN4Sass9WhileRuleD2Ev W
_ZN4utf812invalid_utf8D0Ev W
_ZN4utf812invalid_utf8D1Ev W
_ZN4utf812invalid_utf8D2Ev W
_ZN4utf815not_enough_roomD0Ev W
_ZN4utf815not_enough_roomD1Ev W
_ZN4utf815not_enough_roomD2Ev W
_ZN4utf815replace_invalidIPKcSt20back_insert_iteratorINSt7__cxx1112basic_stringIcSt11char_traitsIcESaIcEEEEEET0_T_SC_SB_j W
_ZN4utf818invalid_code_pointD0Ev W
_ZN4utf818invalid_code_pointD1Ev W
_ZN4utf818invalid_code_pointD2Ev W
_ZN4utf84nextIN9__gnu_cxx17__normal_iteratorIPcNSt7__cxx1112basic_stringIcSt11char_traitsIcESaIcEEEEEEEjRT_SB_ W
_ZN4utf84nextIN9__gnu_cxx17__normal_iteratorIPKcNSt7__cxx1112basic_stringIcSt11char_traitsIcESaIcEEEEEEEjRT_SC_ W
_ZN4utf84nextIPKcEEjRT_S3_ W
_ZN4utf85priorIPKcEEjRT_S3_ W
_ZN4utf86appendIPhEET_jS2_ W
_ZN4utf86appendISt20back_insert_iteratorINSt7__cxx1112basic_stringIcSt11char_traitsIcESaIcEEEEEET_jS9_ W
_ZN4utf88internal13validate_nextIN9__gnu_cxx17__normal_iteratorIPcNSt7__cxx1112basic_stringIcSt11char_traitsIcESaIcEEEEEEENS0_9utf_errorERT_SD_Rj W
_ZN4utf88internal13validate_nextIN9__gnu_cxx17__normal_iteratorIPKcNSt7__cxx1112basic_stringIcSt11char_traitsIcESaIcEEEEEEENS0_9utf_errorERT_SE_Rj W
_ZN4utf88internal13validate_nextIPKcEENS0_9utf_errorERT_S5_Rj W
_ZN4utf89exceptionD0Ev W
_ZN4utf89exceptionD1Ev W
_ZN4utf89exceptionD2Ev W
_ZN9__gnu_cxx12__to_xstringINSt7__cxx1112basic_stringIcSt11char_traitsIcESaIcEEEcEET_PFiPT0_mPKS8_P13__va_list_tagEmSB_z W
_ZNK4Sass10Assignment4copyEv T
_ZNK4Sass10Assignment5cloneEv T
_ZNK4Sass10AtRootRule4copyEv T
_ZNK4Sass10AtRootRule5cloneEv T
_ZNK4Sass10Color_HSLA10copyAsHSLAEv T
_ZNK4Sass10Color_HSLA10copyAsRGBAEv T
_ZNK4Sass10Color_HSLA4copyEv T
_ZNK4Sass10Color_HSLA4hashEv T
_ZNK4Sass10Color_HSLA4typeB5cxx11Ev W
_ZNK4Sass10Color_HSLA5cloneEv T
_ZNK4Sass10Color_HSLAeqERKNS_10ExpressionE T
_ZNK4Sass10Color_HSLAltERKNS_10ExpressionE T
_ZNK4Sass10Color_RGBA10copyAsHSLAEv T
_ZNK4Sass10Color_RGBA10copyAsRGBAEv T
_ZNK4Sass10Color_RGBA4copyEv T
_ZNK4Sass10Color_RGBA4hashEv T
_ZNK4Sass10Color_RGBA4typeB5cxx11Ev W
_ZNK4Sass10Color_RGBA5cloneEv T
_ZNK4Sass10Color_RGBAeqERKNS_10ExpressionE T
_ZNK4Sass10Color_RGBAltERKNS_10ExpressionE T
_ZNK4Sass10Definition4copyEv T
_ZNK4Sass10Definition5cloneEv T
_ZNK4Sass10Expression12is_invisibleEv W
_ZNK4Sass10Expression15has_interpolantEv W
_ZNK4Sass10Expression19is_left_interpolantEv W
_ZNK4Sass10Expression20is_right_interpolantEv W
_ZNK4Sass10Expression2eqERKS0_ W
_ZNK4Sass10Expression4hashEv W
_ZNK4Sass10Expression4typeB5cxx11Ev W
_ZNK4Sass10ExpressioneqERKS0_ W
_ZNK4Sass10ExpressionltERKS0_ W
_ZNK4Sass10ExtendRule4copyEv T
_ZNK4Sass10ExtendRule5cloneEv T
_ZNK4Sass10IDSelector11specificityEv T
_ZNK4Sass10IDSelector12getSortOrderEv W
_ZNK4Sass10IDSelector4copyEv T
_ZNK4Sass10IDSelector5cloneEv T
_ZNK4Sass10IDSelectoreqERKNS_14SimpleSelectorE T
_ZNK4Sass10IDSelectoreqERKS0_ T
_ZNK4Sass10IDSelectorneERKS0_ W
_ZNK4Sass10Mixin_Call4copyEv T
_ZNK4Sass10Mixin_Call5cloneEv T
_ZNK4Sass10Parameters4copyEv T
_ZNK4Sass10Parameters5cloneEv T
_ZNK4Sass10SourceData9to_stringB5cxx11Ev W
_ZNK4Sass10SourceFile10getRawDataEv T
_ZNK4Sass10SourceFile3endEv T
_ZNK4Sass10SourceFile4sizeEv W
_ZNK4Sass10SourceFile5beginEv T
_ZNK4Sass10SourceFile7getPathEv W
_ZNK4Sass10SourceFile8getSrcIdEv W
_ZNK4Sass10VectorizedINS_10SharedImplINS_10ExpressionEEEE2atEm W
_ZNK4Sass10VectorizedINS_10SharedImplINS_10ExpressionEEEE4hashEv W
_ZNK4Sass10VectorizedINS_10SharedImplINS_13CssMediaQueryEEEE2atEm W
_ZNK4Sass10VectorizedINS_10SharedImplINS_13CssMediaQueryEEEE4hashEv W
_ZNK4Sass10VectorizedINS_10SharedImplINS_14SimpleSelectorEEEE2atEm W
_ZNK4Sass10VectorizedINS_10SharedImplINS_14SimpleSelectorEEEE4hashEv W
_ZNK4Sass10VectorizedINS_10SharedImplINS_15ComplexSelectorEEEE2atEm W
_ZNK4Sass10VectorizedINS_10SharedImplINS_15ComplexSelectorEEEE4hashEv W
_ZNK4Sass10VectorizedINS_10SharedImplINS_17SelectorComponentEEEE2atEm W
_ZNK4Sass10VectorizedINS_10SharedImplINS_17SelectorComponentEEEE4hashEv W
_ZNK4Sass10VectorizedINS_10SharedImplINS_22Media_Query_ExpressionEEEE2atEm W
_ZNK4Sass10VectorizedINS_10SharedImplINS_22Media_Query_ExpressionEEEE4hashEv W
_ZNK4Sass10VectorizedINS_10SharedImplINS_8ArgumentEEEE2atEm W
_ZNK4Sass10VectorizedINS_10SharedImplINS_8ArgumentEEEE4hashEv W
_ZNK4Sass10VectorizedINS_10SharedImplINS_8PreValueEEEE2atEm W
_ZNK4Sass10VectorizedINS_10SharedImplINS_8PreValueEEEE4hashEv W
_ZNK4Sass10VectorizedINS_10SharedImplINS_9ParameterEEEE2atEm W
_ZNK4Sass10VectorizedINS_10SharedImplINS_9ParameterEEEE4hashEv W
_ZNK4Sass10VectorizedINS_10SharedImplINS_9StatementEEEE2atEm W
_ZNK4Sass10VectorizedINS_10SharedImplINS_9StatementEEEE4hashEv W
_ZNK4Sass11Declaration12is_invisibleEv T
_ZNK4Sass11Declaration4copyEv T
_ZNK4Sass11Declaration5cloneEv T
_ZNK4Sass11EnvironmentINS_10SharedImplINS_8AST_NodeEEEE10is_lexicalEv W
_ZNK4Sass11EnvironmentINS_10SharedImplINS_8AST_NodeEEEE11has_lexicalERKNSt7__cxx1112basic_stringIcSt11char_traitsIcESaIcEEE W
_ZNK4Sass11EnvironmentINS_10SharedImplINS_8AST_NodeEEEE3hasERKNSt7__cxx1112basic_stringIcSt11char_traitsIcESaIcEEE W
_ZNK4Sass11EnvironmentINS_10SharedImplINS_8AST_NodeEEEE6parentEv W
_ZNK4Sass11EnvironmentINS_10SharedImplINS_8AST_NodeEEEE9has_localERKNSt7__cxx1112basic_stringIcSt11char_traitsIcESaIcEEE W
_ZNK4Sass11EnvironmentINS_10SharedImplINS_8AST_NodeEEEE9is_globalEv W
_ZNK4Sass11EnvironmentINS_10SharedImplINS_8AST_NodeEEEE9is_shadowEv W
_ZNK4Sass11Import_Stub4copyEv T
_ZNK4Sass11Import_Stub5cloneEv T
_ZNK4Sass11Media_Query4copyEv T
_ZNK4Sass11Media_Query5cloneEv T
_ZNK4Sass11WarningRule4copyEv T
_ZNK4Sass11WarningRule5cloneEv T
_ZNK4Sass12CssMediaRule12is_invisibleEv W
_ZNK4Sass12CssMediaRule4copyEv T
_ZNK4Sass12CssMediaRule4hashEv W
_ZNK4Sass12CssMediaRule5cloneEv T
_ZNK4Sass12Custom_Error4copyEv T
_ZNK4Sass12Custom_Error5cloneEv T
_ZNK4Sass12Custom_ErroreqERKNS_10ExpressionE T
_ZNK4Sass12Custom_ErrorltERKNS_10ExpressionE T
_ZNK4Sass12SelectorList11isInvisibleEv T
_ZNK4Sass12SelectorList11specificityEv T
_ZNK4Sass12SelectorList14maxSpecificityEv T
_ZNK4Sass12SelectorList14minSpecificityEv T
_ZNK4Sass12SelectorList17isSuperselectorOfEPKS0_ T
_ZNK4Sass12SelectorList19has_real_parent_refEv T
_ZNK4Sass12SelectorList4copyEv T
_ZNK4Sass12SelectorList4hashEv T
_ZNK4Sass12SelectorList4typeB5cxx11Ev W
_ZNK4Sass12SelectorList5cloneEv T
_ZNK4Sass12SelectorListeqERKNS_10ExpressionE T
_ZNK4Sass12SelectorListeqERKNS_14SimpleSelectorE T
_ZNK4Sass12SelectorListeqERKNS_15ComplexSelectorE T
_ZNK4Sass12SelectorListeqERKNS_16CompoundSelectorE T
_ZNK4Sass12SelectorListeqERKNS_8SelectorE T
_ZNK4Sass12SelectorListeqERKS0_ T
_ZNK4Sass12SelectorListneERKS0_ W
_ZNK4Sass12SupportsRule4copyEv T
_ZNK4Sass12SupportsRule5cloneEv T
_ZNK4Sass12TypeSelector11specificityEv T
_ZNK4Sass12TypeSelector12getSortOrderEv W
_ZNK4Sass12TypeSelector4copyEv T
_ZNK4Sass12TypeSelector5cloneEv T
_ZNK4Sass12TypeSelectoreqERKNS_14SimpleSelectorE T
_ZNK4Sass12TypeSelectoreqERKS0_ T
_ZNK4Sass12TypeSelectorneERKS0_ W
_ZNK4Sass13At_Root_Query4copyEv T
_ZNK4Sass13At_Root_Query5cloneEv T
_ZNK4Sass13ClassSelector11specificityEv T
_ZNK4Sass13ClassSelector12getSortOrderEv W
_ZNK4Sass13ClassSelector4copyEv T
_ZNK4Sass13ClassSelector5cloneEv T
_ZNK4Sass13ClassSelectoreqERKNS_14SimpleSelectorE T
_ZNK4Sass13ClassSelectoreqERKS0_ T
_ZNK4Sass13ClassSelectorneERKS0_ W
_ZNK4Sass13CssMediaQuery4copyEv T
_ZNK4Sass13CssMediaQuery5cloneEv T
_ZNK4Sass13CssMediaQueryeqERKS0_ T
_ZNK4Sass13Function_Call4copyEv T
_ZNK4Sass13Function_Call4hashEv T
_ZNK4Sass13Function_Call4nameB5cxx11Ev T
_ZNK4Sass13Function_Call5cloneEv T
_ZNK4Sass13Function_CalleqERKNS_10ExpressionE T
_ZNK4Sass13Keyframe_Rule4copyEv T
_ZNK4Sass13Keyframe_Rule5cloneEv T
_ZNK4Sass13String_Quoted4copyEv T
_ZNK4Sass13String_Quoted5cloneEv T
_ZNK4Sass13String_Quoted7inspectB5cxx11Ev T
_ZNK4Sass13String_QuotedeqERKNS_10ExpressionE T
_ZNK4Sass13String_QuotedltERKNS_10ExpressionE T
_ZNK4Sass13String_Schema19is_left_interpolantEv T
_ZNK4Sass13String_Schema20is_right_interpolantEv T
_ZNK4Sass13String_Schema4copyEv T
_ZNK4Sass13String_Schema4hashEv T
_ZNK4Sass13String_Schema4typeB5cxx11Ev W
_ZNK4Sass13String_Schema5cloneEv T
_ZNK4Sass13String_SchemaeqERKNS_10ExpressionE T
_ZNK4Sass13String_SchemaltERKNS_10ExpressionE T
_ZNK4Sass14Custom_Warning4copyEv T
_ZNK4Sass14Custom_Warning5cloneEv T
_ZNK4Sass14Custom_WarningeqERKNS_10ExpressionE T
_ZNK4Sass14Custom_WarningltERKNS_10ExpressionE T
_ZNK4Sass14PseudoSelector11specificityEv T
_ZNK4Sass14PseudoSelector12getSortOrderEv W
_ZNK4Sass14PseudoSelector17is_pseudo_elementEv T
_ZNK4Sass14PseudoSelector19has_real_parent_refEv T
_ZNK4Sass14PseudoSelector4copyEv T
_ZNK4Sass14PseudoSelector4hashEv T
_ZNK4Sass14PseudoSelector5cloneEv T
_ZNK4Sass14PseudoSelector5emptyEv T
_ZNK4Sass14PseudoSelectoreqERKNS_14SimpleSelectorE T
_ZNK4Sass14PseudoSelectoreqERKS0_ T
_ZNK4Sass14PseudoSelectorneERKS0_ W
_ZNK4Sass14SimpleSelector11is_empty_nsEv T
_ZNK4Sass14SimpleSelector11isInvisibleEv W
_ZNK4Sass14SimpleSelector12has_empty_nsEv T
_ZNK4Sass14SimpleSelector12is_universalEv T
_ZNK4Sass14SimpleSelector15is_universal_nsEv T
_ZNK4Sass14SimpleSelector16has_qualified_nsEv T
_ZNK4Sass14SimpleSelector17is_pseudo_elementEv T
_ZNK4Sass14SimpleSelector19has_real_parent_refEv T
_ZNK4Sass14SimpleSelector4hashEv T
_ZNK4Sass14SimpleSelector5emptyEv T
_ZNK4Sass14SimpleSelector7ns_nameB5cxx11Ev T
_ZNK4Sass14SimpleSelector8is_ns_eqERKS0_ T
_ZNK4Sass14SimpleSelectoreqERKNS_12SelectorListE T
_ZNK4Sass14SimpleSelectoreqERKNS_15ComplexSelectorE T
_ZNK4Sass14SimpleSelectoreqERKNS_16CompoundSelectorE T
_ZNK4Sass14SimpleSelectoreqERKNS_8SelectorE T
_ZNK4Sass14SimpleSelectorneERKS0_ W
_ZNK4Sass15ComplexSelector11isInvisibleEv T
_ZNK4Sass15ComplexSelector11specificityEv T
_ZNK4Sass15ComplexSelector14maxSpecificityEv T
_ZNK4Sass15ComplexSelector14minSpecificityEv T
_ZNK4Sass15ComplexSelector15has_placeholderEv T
_ZNK4Sass15ComplexSelector17isSuperselectorOfEPKS0_ T
_ZNK4Sass15ComplexSelector19has_real_parent_refEv T
_ZNK4Sass15ComplexSelector4copyEv T
_ZNK4Sass15ComplexSelector4hashEv T
_ZNK4Sass15ComplexSelector5cloneEv T
_ZNK4Sass15ComplexSelectoreqERKNS_12SelectorListE T
_ZNK4Sass15ComplexSelectoreqERKNS_14SimpleSelectorE T
_ZNK4Sass15ComplexSelectoreqERKNS_16CompoundSelectorE T
_ZNK4Sass15ComplexSelectoreqERKNS_8SelectorE T
_ZNK4Sass15ComplexSelectoreqERKS0_ T
_ZNK4Sass15ComplexSelectorneERKS0_ W
_ZNK4Sass15Selector_Schema11specificityEv T
_ZNK4Sass15Selector_Schema19has_real_parent_refEv T
_ZNK4Sass15Selector_Schema4copyEv T
_ZNK4Sass15Selector_Schema4hashEv T
_ZNK4Sass15Selector_Schema5cloneEv T
_ZNK4Sass15String_Constant12is_invisibleEv T
_ZNK4Sass15String_Constant4copyEv T
_ZNK4Sass15String_Constant4hashEv T
_ZNK4Sass15String_Constant4typeB5cxx11Ev W
_ZNK4Sass15String_Constant5cloneEv T
_ZNK4Sass15String_Constant7inspectB5cxx11Ev T
_ZNK4Sass15String_ConstanteqERKNS_10ExpressionE T
_ZNK4Sass15String_ConstantltERKNS_10ExpressionE T
_ZNK4Sass16CompoundSelector10isCompoundEv W
_ZNK4Sass16CompoundSelector11getCompoundEv W
_ZNK4Sass16CompoundSelector11isInvisibleEv T
_ZNK4Sass16CompoundSelector11specificityEv T
_ZNK4Sass16CompoundSelector14maxSpecificityEv T
_ZNK4Sass16CompoundSelector14minSpecificityEv T
_ZNK4Sass16CompoundSelector15has_placeholderEv T
_ZNK4Sass16CompoundSelector17isSuperselectorOfEPKS0_NSt7__cxx1112basic_stringIcSt11char_traitsIcESaIcEEE T
_ZNK4Sass16CompoundSelector19has_real_parent_refEv T
_ZNK4Sass16CompoundSelector4copyEv T
_ZNK4Sass16CompoundSelector4hashEv T
_ZNK4Sass16CompoundSelector5cloneEv T
_ZNK4Sass16CompoundSelector5emptyEv W
_ZNK4Sass16CompoundSelectoreqERKNS_12SelectorListE T
_ZNK4Sass16CompoundSelectoreqERKNS_14SimpleSelectorE T
_ZNK4Sass16CompoundSelectoreqERKNS_15ComplexSelectorE T
_ZNK4Sass16CompoundSelectoreqERKNS_17SelectorComponentE T
_ZNK4Sass16CompoundSelectoreqERKNS_8SelectorE T
_ZNK4Sass16CompoundSelectoreqERKS0_ T
_ZNK4Sass16CompoundSelectorneERKS0_ W
_ZNK4Sass16Parent_Reference4copyEv T
_ZNK4Sass16Parent_Reference4typeB5cxx11Ev W
_ZNK4Sass16Parent_Reference5cloneEv T
_ZNK4Sass16Parent_ReferenceeqERKNS_10ExpressionE W
_ZNK4Sass16Parent_ReferenceltERKNS_10ExpressionE W
_ZNK4Sass16SupportsNegation12needs_parensENS_10SharedImplINS_17SupportsConditionEEE T
_ZNK4Sass16SupportsNegation4copyEv T
_ZNK4Sass16SupportsNegation5cloneEv T
_ZNK4Sass16Unary_Expression4copyEv T
_ZNK4Sass16Unary_Expression4hashEv T
_ZNK4Sass16Unary_Expression5cloneEv T
_ZNK4Sass16Unary_ExpressioneqERKNS_10ExpressionE T
_ZNK4Sass17AttributeSelector11specificityEv T
_ZNK4Sass17AttributeSelector12getSortOrderEv W
_ZNK4Sass17AttributeSelector4copyEv T
_ZNK4Sass17AttributeSelector4hashEv T
_ZNK4Sass17AttributeSelector5cloneEv T
_ZNK4Sass17AttributeSelectoreqERKNS_14SimpleSelectorE T
_ZNK4Sass17AttributeSelectoreqERKS0_ T
_ZNK4Sass17AttributeSelectorneERKS0_ W
_ZNK4Sass17Binary_Expression15has_interpolantEv T
_ZNK4Sass17Binary_Expression19is_left_interpolantEv T
_ZNK4Sass17Binary_Expression20is_right_interpolantEv T
_ZNK4Sass17Binary_Expression4copyEv T
_ZNK4Sass17Binary_Expression4hashEv T
_ZNK4Sass17Binary_Expression5cloneEv T
_ZNK4Sass17Binary_ExpressioneqERKNS_10ExpressionE T
_ZNK4Sass17Binary_ExpressionltERKNS_10ExpressionE T
_ZNK4Sass17SelectorComponent10isCompoundEv W
_ZNK4Sass17SelectorComponent11getCompoundEv W
_ZNK4Sass17SelectorComponent11specificityEv T
_ZNK4Sass17SelectorComponent12isCombinatorEv W
_ZNK4Sass17SelectorComponent13getCombinatorEv W
_ZNK4Sass17SelectorComponent14maxSpecificityEv W
_ZNK4Sass17SelectorComponent14minSpecificityEv W
_ZNK4Sass17SelectorComponent5emptyEv W
_ZNK4Sass17SelectorComponentneERKS0_ W
_ZNK4Sass17SupportsCondition12needs_parensENS_10SharedImplIS0_EE W
_ZNK4Sass17SupportsCondition4copyEv T
_ZNK4Sass17SupportsCondition5cloneEv T
_ZNK4Sass17SupportsOperation12needs_parensENS_10SharedImplINS_17SupportsConditionEEE T
_ZNK4Sass17SupportsOperation4copyEv T
_ZNK4Sass17SupportsOperation5cloneEv T
_ZNK4Sass18SelectorCombinator11specificityEv T
_ZNK4Sass18SelectorCombinator12isCombinatorEv W
_ZNK4Sass18SelectorCombinator13getCombinatorEv W
_ZNK4Sass18SelectorCombinator14maxSpecificityEv W
_ZNK4Sass18SelectorCombinator14minSpecificityEv W
_ZNK4Sass18SelectorCombinator15has_placeholderEv W
_ZNK4Sass18SelectorCombinator19has_real_parent_refEv W
_ZNK4Sass18SelectorCombinator4copyEv T
_ZNK4Sass18SelectorCombinator4hashEv W
_ZNK4Sass18SelectorCombinator5cloneEv T
_ZNK4Sass18SelectorCombinatoreqERKNS_17SelectorComponentE T
_ZNK4Sass18SelectorCombinatoreqERKNS_8SelectorE T
_ZNK4Sass18SelectorCombinatoreqERKS0_ T
_ZNK4Sass18SelectorCombinatorneERKS0_ W
_ZNK4Sass19PlaceholderSelector11isInvisibleEv W
_ZNK4Sass19PlaceholderSelector11specificityEv T
_ZNK4Sass19PlaceholderSelector12getSortOrderEv W
_ZNK4Sass19PlaceholderSelector4copyEv T
_ZNK4Sass19PlaceholderSelector5cloneEv T
_ZNK4Sass19PlaceholderSelectoreqERKNS_14SimpleSelectorE T
_ZNK4Sass19PlaceholderSelectoreqERKS0_ T
_ZNK4Sass19PlaceholderSelectorneERKS0_ W
_ZNK4Sass19SupportsDeclaration12needs_parensENS_10SharedImplINS_17SupportsConditionEEE T
_ZNK4Sass19SupportsDeclaration4copyEv T
_ZNK4Sass19SupportsDeclaration5cloneEv T
_ZNK4Sass22Media_Query_Expression4copyEv T
_ZNK4Sass22Media_Query_Expression5cloneEv T
_ZNK4Sass22Supports_Interpolation12needs_parensENS_10SharedImplINS_17SupportsConditionEEE T
_ZNK4Sass22Supports_Interpolation4copyEv T
_ZNK4Sass22Supports_Interpolation5cloneEv T
_ZNK4Sass2If4copyEv T
_ZNK4Sass2If5cloneEv T
_ZNK4Sass3Map12is_invisibleEv W
_ZNK4Sass3Map4copyEv T
_ZNK4Sass3Map4hashEv T
_ZNK4Sass3Map4typeB5cxx11Ev W
_ZNK4Sass3Map5cloneEv T
_ZNK4Sass3MapeqERKNS_10ExpressionE T
_ZNK4Sass3MapltERKNS_10ExpressionE T
_ZNK4Sass4List12is_invisibleEv W
_ZNK4Sass4List4copyEv T
_ZNK4Sass4List4hashEv T
_ZNK4Sass4List4sizeEv T
_ZNK4Sass4List4typeB5cxx11Ev W
_ZNK4Sass4List5cloneEv T
_ZNK4Sass4ListeqERKNS_10ExpressionE T
_ZNK4Sass4ListltERKNS_10ExpressionE T
_ZNK4Sass4Null12is_invisibleEv W
_ZNK4Sass4Null4copyEv T
_ZNK4Sass4Null4hashEv T
_ZNK4Sass4Null4typeB5cxx11Ev W
_ZNK4Sass4Null5cloneEv T
_ZNK4Sass4NulleqERKNS_10ExpressionE T
_ZNK4Sass4NullltERKNS_10ExpressionE T
_ZNK4Sass5Block11isInvisibleEv T
_ZNK4Sass5Block4copyEv T
_ZNK4Sass5Block5cloneEv T
_ZNK4Sass5Color4typeB5cxx11Ev W
_ZNK4Sass5ColoreqERKNS_10ExpressionE T
_ZNK4Sass5ColorltERKNS_10ExpressionE T
_ZNK4Sass5Trace4copyEv T
_ZNK4Sass5Trace5cloneEv T
_ZNK4Sass5Units11is_unitlessEv T
_ZNK4Sass5Units14convert_factorERKS0_ T
_ZNK4Sass5Units17is_valid_css_unitEv T
_ZNK4Sass5Units4unitB5cxx11Ev T
_ZNK4Sass5UnitseqERKS0_ T
_ZNK4Sass5UnitsltERKS0_ T
_ZNK4Sass5UnitsneERKS0_ T
_ZNK4Sass5ValuegtERKNS_10ExpressionE W
_ZNK4Sass5ValueneERKNS_10ExpressionE W
_ZNK4Sass6AtRule4copyEv T
_ZNK4Sass6AtRule5cloneEv T
_ZNK4Sass6Bubble4copyEv T
_ZNK4Sass6Bubble5cloneEv T
_ZNK4Sass6Import4copyEv T
_ZNK4Sass6Import5cloneEv T
_ZNK4Sass6Number4copyEv T
_ZNK4Sass6Number4hashEv T
_ZNK4Sass6Number4typeB5cxx11Ev W
_ZNK4Sass6Number5cloneEv T
_ZNK4Sass6NumbereqERKNS_10ExpressionE T
_ZNK4Sass6NumbereqERKS0_ T
_ZNK4Sass6NumberltERKNS_10ExpressionE T
_ZNK4Sass6NumberltERKS0_ T
_ZNK4Sass6Offset3incEPKcS2_ T
_ZNK4Sass6OffseteqERKS0_ T
_ZNK4Sass6OffsetmiERKS0_ T
_ZNK4Sass6OffsetneERKS0_ T
_ZNK4Sass6OffsetplERKS0_ T
_ZNK4Sass6Parser15color_or_stringERKNSt7__cxx1112basic_stringIcSt11char_traitsIcESaIcEEE T
_ZNK4Sass6Return4copyEv T
_ZNK4Sass6Return5cloneEv T
_ZNK4Sass6StringeqERKNS_10ExpressionE W
_ZNK4Sass6StringltERKNS_10ExpressionE W
_ZNK4Sass7Boolean4copyEv T
_ZNK4Sass7Boolean4hashEv T
_ZNK4Sass7Boolean4typeB5cxx11Ev W
_ZNK4Sass7Boolean5cloneEv T
_ZNK4Sass7BooleaneqERKNS_10ExpressionE T
_ZNK4Sass7BooleanltERKNS_10ExpressionE T
_ZNK4Sass7Comment12is_invisibleEv T
_ZNK4Sass7Comment4copyEv T
_ZNK4Sass7Comment5cloneEv T
_ZNK4Sass7Content4copyEv T
_ZNK4Sass7Content5cloneEv T
_ZNK4Sass7Emitter12output_styleEv T
_ZNK4Sass7ForRule4copyEv T
_ZNK4Sass7ForRule5cloneEv T
_ZNK4Sass8Argument4copyEv T
_ZNK4Sass8Argument4hashEv T
_ZNK4Sass8Argument5cloneEv T
_ZNK4Sass8ArgumenteqERKNS_10ExpressionE T
_ZNK4Sass8AST_Node4hashEv W
_ZNK4Sass8AST_Node6to_cssB5cxx11E20Sass_Inspect_Options T
_ZNK4Sass8AST_Node7inspectB5cxx11Ev W
_ZNK4Sass8AST_Node7to_sassB5cxx11Ev W
_ZNK4Sass8AST_Node9to_stringB5cxx11E20Sass_Inspect_Options T
_ZNK4Sass8AST_Node9to_stringB5cxx11Ev T
_ZNK4Sass8AST_NodeeqERKS0_ W
_ZNK4Sass8AST_NodeneERKS0_ W
_ZNK4Sass8EachRule4copyEv T
_ZNK4Sass8EachRule5cloneEv T
_ZNK4Sass8Extender18extensionForSimpleERKNS_10SharedImplINS_14SimpleSelectorEEE T
_ZNK4Sass8Extender18getSimpleSelectorsEv T
_ZNK4Sass8Extender19extendWithoutPseudoERKNS_10SharedImplINS_14SimpleSelectorEEERKSt13unordered_mapIS3_NS_11ordered_mapINS1_INS_15ComplexSelectorEEENS_9ExtensionENS_7ObjHashENS_11ObjEqualityESaISt4pairIKS9_SA_EEEESB_SC_SaISD_IS4_SH_EEEPSt13unordered_setIS3_SB_SC_SaIS3_EE T
_ZNK4Sass8Extender20extensionForCompoundERKSt6vectorINS_10SharedImplINS_14SimpleSelectorEEESaIS4_EE T
_ZNK4Sass8Extender20maxSourceSpecificityERKNS_10SharedImplINS_14SimpleSelectorEEE T
_ZNK4Sass8Extender20maxSourceSpecificityERKNS_10SharedImplINS_16CompoundSelectorEEE T
_ZNK4Sass8Extender26checkForUnsatisfiedExtendsERNS_9ExtensionE T
_ZNK4Sass8Extender4trimERKSt6vectorINS_10SharedImplINS_15ComplexSelectorEEESaIS4_EERKSt13unordered_setIS4_NS_10ObjPtrHashENS_14ObjPtrEqualityES5_E T
_ZNK4Sass8Function12is_invisibleEv W
_ZNK4Sass8Function4copyEv T
_ZNK4Sass8Function4typeB5cxx11Ev W
_ZNK4Sass8Function5cloneEv T
_ZNK4Sass8FunctioneqERKNS_10ExpressionE T
_ZNK4Sass8FunctionltERKNS_10ExpressionE T
_ZNK4Sass8ItplFile10getRawDataEv T
_ZNK4Sass8Position3incEPKcS2_ T
_ZNK4Sass8PositioneqERKS0_ T
_ZNK4Sass8PositionmiERKNS_6OffsetE T
_ZNK4Sass8PositionneERKS0_ T
_ZNK4Sass8PositionplERKNS_6OffsetE T
_ZNK4Sass8Selector14maxSpecificityEv W
_ZNK4Sass8Selector14minSpecificityEv W
_ZNK4Sass8Selector19has_real_parent_refEv T
_ZNK4Sass8SelectorneERKS0_ W
_ZNK4Sass8Variable4copyEv T
_ZNK4Sass8Variable4hashEv T
_ZNK4Sass8Variable5cloneEv T
_ZNK4Sass8VariableeqERKNS_10ExpressionE T
_ZNK4Sass9Arguments4copyEv T
_ZNK4Sass9Arguments5cloneEv T
_ZNK4Sass9Base64VLQ13base64_encodeEi T
_ZNK4Sass9Base64VLQ13to_vlq_signedEi T
_ZNK4Sass9Base64VLQ6encodeB5cxx11Ei T
_ZNK4Sass9DebugRule4copyEv T
_ZNK4Sass9DebugRule5cloneEv T
_ZNK4Sass9ErrorRule4copyEv T
_ZNK4Sass9ErrorRule5cloneEv T
_ZNK4Sass9Exception10StackError7errtypeEv W
_ZNK4Sass9Exception12InvalidValue7errtypeEv W
_ZNK4Sass9Exception12TypeMismatch7errtypeEv W
_ZNK4Sass9Exception14OperationError4whatEv W
_ZNK4Sass9Exception14OperationError7errtypeEv W
_ZNK4Sass9Exception17DuplicateKeyError7errtypeEv W
_ZNK4Sass9Exception17ZeroDivisionError7errtypeEv W
_ZNK4Sass9Exception4Base4whatEv W
_ZNK4Sass9Exception4Base7errtypeEv W
_ZNK4Sass9Extension12withExtenderERKNS_10SharedImplINS_15ComplexSelectorEEE T
_ZNK4Sass9Extension28assertCompatibleMediaContextENS_10SharedImplINS_12CssMediaRuleEEERSt6vectorINS_9BacktraceESaIS5_EE T
_ZNK4Sass9MediaRule12is_invisibleEv W
_ZNK4Sass9MediaRule4copyEv T
_ZNK4Sass9MediaRule5cloneEv T
_ZNK4Sass9Parameter4copyEv T
_ZNK4Sass9Parameter5cloneEv T
_ZNK4Sass9Statement12is_invisibleEv T
_ZNK4Sass9StyleRule12is_invisibleEv T
_ZNK4Sass9StyleRule4copyEv T
_ZNK4Sass9StyleRule5cloneEv T
_ZNK4Sass9SynthFile10getRawDataEv W
_ZNK4Sass9SynthFile3endEv W
_ZNK4Sass9SynthFile4sizeEv W
_ZNK4Sass9SynthFile5beginEv W
_ZNK4Sass9SynthFile7getPathEv W
_ZNK4Sass9SynthFile8getSrcIdEv W
_ZNK4Sass9WhileRule4copyEv T
_ZNK4Sass9WhileRule5cloneEv T
_ZNK4utf812invalid_utf84whatEv W
_ZNK4utf815not_enough_room4whatEv W
_ZNK4utf818invalid_code_point4whatEv W
_ZNKSt10_HashtableIN4Sass10SharedImplINS0_10ExpressionEEESt4pairIKS3_S3_ESaIS6_ENSt8__detail10_Select1stENS0_11ObjEqualityENS0_7ObjHashENS8_18_Mod_range_hashingENS8_20_Default_ranged_hashENS8_20_Prime_rehash_policyENS8_17_Hashtable_traitsILb1ELb0ELb1EEEE19_M_find_before_nodeEmRS5_m W
_ZNKSt10_HashtableIN4Sass10SharedImplINS0_10ExpressionEEESt4pairIKS3_S3_ESaIS6_ENSt8__detail10_Select1stENS0_11ObjEqualityENS0_7ObjHashENS8_18_Mod_range_hashingENS8_20_Default_ranged_hashENS8_20_Prime_rehash_policyENS8_17_Hashtable_traitsILb1ELb0ELb1EEEE4findERS5_ W
_ZNKSt10_HashtableIN4Sass10SharedImplINS0_10ExpressionEEESt4pairIKS3_S3_ESaIS6_ENSt8__detail10_Select1stENS0_11ObjEqualityENS0_7ObjHashENS8_18_Mod_range_hashingENS8_20_Default_ranged_hashENS8_20_Prime_rehash_policyENS8_17_Hashtable_traitsILb1ELb0ELb1EEEE5countERS5_ W
_ZNKSt10_HashtableIN4Sass10SharedImplINS0_12SelectorListEEESt4pairIKS3_NS1_INS0_12CssMediaRuleEEEESaIS8_ENSt8__detail10_Select1stENS0_14ObjPtrEqualityENS0_10ObjPtrHashENSA_18_Mod_range_hashingENSA_20_Default_ranged_hashENSA_20_Prime_rehash_policyENSA_17_Hashtable_traitsILb1ELb0ELb1EEEE19_M_find_before_nodeEmRS5_m W
_ZNKSt10_HashtableIN4Sass10SharedImplINS0_12SelectorListEEESt4pairIKS3_NS1_INS0_12CssMediaRuleEEEESaIS8_ENSt8__detail10_Select1stENS0_14ObjPtrEqualityENS0_10ObjPtrHashENSA_18_Mod_range_hashingENSA_20_Default_ranged_hashENSA_20_Prime_rehash_policyENSA_17_Hashtable_traitsILb1ELb0ELb1EEEE4findERS5_ W
_ZNKSt10_HashtableIN4Sass10SharedImplINS0_14SimpleSelectorEEES3_SaIS3_ENSt8__detail9_IdentityENS0_11ObjEqualityENS0_7ObjHashENS5_18_Mod_range_hashingENS5_20_Default_ranged_hashENS5_20_Prime_rehash_policyENS5_17_Hashtable_traitsILb1ELb1ELb1EEEE19_M_find_before_nodeEmRKS3_m W
_ZNKSt10_HashtableIN4Sass10SharedImplINS0_14SimpleSelectorEEESt4pairIKS3_mESaIS6_ENSt8__detail10_Select1stENS0_14ObjPtrEqualityENS0_10ObjPtrHashENS8_18_Mod_range_hashingENS8_20_Default_ranged_hashENS8_20_Prime_rehash_policyENS8_17_Hashtable_traitsILb1ELb0ELb1EEEE19_M_find_before_nodeEmRS5_m W
_ZNKSt10_HashtableIN4Sass10SharedImplINS0_14SimpleSelectorEEESt4pairIKS3_NS0_11ordered_mapINS1_INS0_15ComplexSelectorEEENS0_9ExtensionENS0_7ObjHashENS0_11ObjEqualityESaIS4_IKS8_S9_EEEEESaISG_ENSt8__detail10_Select1stESB_SA_NSI_18_Mod_range_hashingENSI_20_Default_ranged_hashENSI_20_Prime_rehash_policyENSI_17_Hashtable_traitsILb1ELb0ELb1EEEE19_M_find_before_nodeEmRS5_m W
_ZNKSt10_HashtableIN4Sass10SharedImplINS0_14SimpleSelectorEEESt4pairIKS3_St13unordered_setINS1_INS0_12SelectorListEEENS0_10ObjPtrHashENS0_14ObjPtrEqualityESaIS8_EEESaISD_ENSt8__detail10_Select1stENS0_11ObjEqualityENS0_7ObjHashENSF_18_Mod_range_hashingENSF_20_Default_ranged_hashENSF_20_Prime_rehash_policyENSF_17_Hashtable_traitsILb1ELb0ELb1EEEE19_M_find_before_nodeEmRS5_m W
_ZNKSt10_HashtableIN4Sass10SharedImplINS0_14SimpleSelectorEEESt4pairIKS3_St6vectorINS0_9ExtensionESaIS7_EEESaISA_ENSt8__detail10_Select1stENS0_11ObjEqualityENS0_7ObjHashENSC_18_Mod_range_hashingENSC_20_Default_ranged_hashENSC_20_Prime_rehash_policyENSC_17_Hashtable_traitsILb1ELb0ELb1EEEE19_M_find_before_nodeEmRS5_m W
_ZNKSt10_HashtableIN4Sass10SharedImplINS0_15ComplexSelectorEEES3_SaIS3_ENSt8__detail9_IdentityENS0_14ObjPtrEqualityENS0_10ObjPtrHashENS5_18_Mod_range_hashingENS5_20_Default_ranged_hashENS5_20_Prime_rehash_policyENS5_17_Hashtable_traitsILb1ELb1ELb1EEEE19_M_find_before_nodeEmRKS3_m W
_ZNKSt10_HashtableIN4Sass10SharedImplINS0_15ComplexSelectorEEESt4pairIKS3_NS0_9ExtensionEESaIS7_ENSt8__detail10_Select1stENS0_11ObjEqualityENS0_7ObjHashENS9_18_Mod_range_hashingENS9_20_Default_ranged_hashENS9_20_Prime_rehash_policyENS9_17_Hashtable_traitsILb1ELb0ELb1EEEE19_M_find_before_nodeEmRS5_m W
_ZNKSt10_HashtableIN4Sass10SharedImplINS0_15ComplexSelectorEEESt4pairIKS3_NS0_9ExtensionEESaIS7_ENSt8__detail10_Select1stENS0_11ObjEqualityENS0_7ObjHashENS9_18_Mod_range_hashingENS9_20_Default_ranged_hashENS9_20_Prime_rehash_policyENS9_17_Hashtable_traitsILb1ELb0ELb1EEEE4findERS5_ W
_ZNKSt10_HashtableINSt7__cxx1112basic_stringIcSt11char_traitsIcESaIcEEES5_SaIS5_ENSt8__detail9_IdentityESt8equal_toIS5_ESt4hashIS5_ENS7_18_Mod_range_hashingENS7_20_Default_ranged_hashENS7_20_Prime_rehash_policyENS7_17_Hashtable_traitsILb1ELb1ELb1EEEE19_M_find_before_nodeEmRKS5_m W
_ZNKSt10_HashtableINSt7__cxx1112basic_stringIcSt11char_traitsIcESaIcEEESt4pairIKS5_PKN4Sass10Color_RGBAEESaISC_ENSt8__detail10_Select1stESt8equal_toIS5_ESt4hashIS5_ENSE_18_Mod_range_hashingENSE_20_Default_ranged_hashENSE_20_Prime_rehash_policyENSE_17_Hashtable_traitsILb1ELb0ELb1EEEE19_M_find_before_nodeEmRS7_m W
_ZNKSt10_HashtableIPKN4Sass14SimpleSelectorES3_SaIS3_ENSt8__detail9_IdentityENS0_14PtrObjEqualityENS0_10PtrObjHashENS5_18_Mod_range_hashingENS5_20_Default_ranged_hashENS5_20_Prime_rehash_policyENS5_17_Hashtable_traitsILb1ELb1ELb1EEEE19_M_find_before_nodeEmRKS3_m W
_ZNKSt10_HashtableIPKN4Sass15ComplexSelectorES3_SaIS3_ENSt8__detail9_IdentityENS0_14PtrObjEqualityENS0_10PtrObjHashENS5_18_Mod_range_hashingENS5_20_Default_ranged_hashENS5_20_Prime_rehash_policyENS5_17_Hashtable_traitsILb1ELb1ELb1EEEE19_M_find_before_nodeEmRKS3_m W
_ZNKSt5ctypeIcE8do_widenEc W
_ZNKSt8__detail9_Map_baseIN4Sass10SharedImplINS1_10ExpressionEEESt4pairIKS4_S4_ESaIS7_ENS_10_Select1stENS1_11ObjEqualityENS1_7ObjHashENS_18_Mod_range_hashingENS_20_Default_ranged_hashENS_20_Prime_rehash_policyENS_17_Hashtable_traitsILb1ELb0ELb1EEELb1EE2atERS6_ W
_ZNKSt8_Rb_treeINSt7__cxx1112basic_stringIcSt11char_traitsIcESaIcEEESt4pairIKS5_N4Sass10SharedImplINS8_9ParameterEEEESt10_Select1stISC_ESt4lessIS5_ESaISC_EE4findERS7_ W
_ZNSt10_HashtableIiSt4pairIKiPKcESaIS4_ENSt8__detail10_Select1stESt8equal_toIiESt4hashIiENS6_18_Mod_range_hashingENS6_20_Default_ranged_hashENS6_20_Prime_rehash_policyENS6_17_Hashtable_traitsILb0ELb0ELb1EEEE9_M_rehashEmRKm W
_ZNSt10_HashtableIiSt4pairIKiPKcESaIS4_ENSt8__detail10_Select1stESt8equal_toIiESt4hashIiENS6_18_Mod_range_hashingENS6_20_Default_ranged_hashENS6_20_Prime_rehash_policyENS6_17_Hashtable_traitsILb0ELb0ELb1EEEEC1IPKS4_EET_SL_mRKSB_RKSC_RKSD_RKS9_RKS7_RKS5_ W
_ZNSt10_HashtableIiSt4pairIKiPKcESaIS4_ENSt8__detail10_Select1stESt8equal_toIiESt4hashIiENS6_18_Mod_range_hashingENS6_20_Default_ranged_hashENS6_20_Prime_rehash_policyENS6_17_Hashtable_traitsILb0ELb0ELb1EEEEC2IPKS4_EET_SL_mRKSB_RKSC_RKSD_RKS9_RKS7_RKS5_ W
_ZNSt10_HashtableIN4Sass10SharedImplINS0_10ExpressionEEESt4pairIKS3_S3_ESaIS6_ENSt8__detail10_Select1stENS0_11ObjEqualityENS0_7ObjHashENS8_18_Mod_range_hashingENS8_20_Default_ranged_hashENS8_20_Prime_rehash_policyENS8_17_Hashtable_traitsILb1ELb0ELb1EEEE18_M_assign_elementsIRKSH_ZNSH_aSESK_EUlRKNS8_17_ReuseOrAllocNodeISaINS8_10_Hash_nodeIS6_Lb1EEEEEEPKSN_E0_EEvOT_RKT0_ W
_ZNSt10_HashtableIN4Sass10SharedImplINS0_10ExpressionEEESt4pairIKS3_S3_ESaIS6_ENSt8__detail10_Select1stENS0_11ObjEqualityENS0_7ObjHashENS8_18_Mod_range_hashingENS8_20_Default_ranged_hashENS8_20_Prime_rehash_policyENS8_17_Hashtable_traitsILb1ELb0ELb1EEEE5clearEv W
_ZNSt10_HashtableIN4Sass10SharedImplINS0_10ExpressionEEESt4pairIKS3_S3_ESaIS6_ENSt8__detail10_Select1stENS0_11ObjEqualityENS0_7ObjHashENS8_18_Mod_range_hashingENS8_20_Default_ranged_hashENS8_20_Prime_rehash_policyENS8_17_Hashtable_traitsILb1ELb0ELb1EEEE9_M_assignIZNSH_18_M_assign_elementsIRKSH_ZNSH_aSESL_EUlRKNS8_17_ReuseOrAllocNodeISaINS8_10_Hash_nodeIS6_Lb1EEEEEEPKSO_E0_EEvOT_RKT0_EUlPSO_E_EEvSL_RKSW_ W
_ZNSt10_HashtableIN4Sass10SharedImplINS0_10ExpressionEEESt4pairIKS3_S3_ESaIS6_ENSt8__detail10_Select1stENS0_11ObjEqualityENS0_7ObjHashENS8_18_Mod_range_hashingENS8_20_Default_ranged_hashENS8_20_Prime_rehash_policyENS8_17_Hashtable_traitsILb1ELb0ELb1EEEE9_M_assignIZNSH_C4ERKSH_EUlPKNS8_10_Hash_nodeIS6_Lb1EEEE_EEvSK_RKT_ W
_ZNSt10_HashtableIN4Sass10SharedImplINS0_10ExpressionEEESt4pairIKS3_S3_ESaIS6_ENSt8__detail10_Select1stENS0_11ObjEqualityENS0_7ObjHashENS8_18_Mod_range_hashingENS8_20_Default_ranged_hashENS8_20_Prime_rehash_policyENS8_17_Hashtable_traitsILb1ELb0ELb1EEEE9_M_rehashEmRKm W
_ZNSt10_HashtableIN4Sass10SharedImplINS0_10ExpressionEEESt4pairIKS3_S3_ESaIS6_ENSt8__detail10_Select1stENS0_11ObjEqualityENS0_7ObjHashENS8_18_Mod_range_hashingENS8_20_Default_ranged_hashENS8_20_Prime_rehash_policyENS8_17_Hashtable_traitsILb1ELb0ELb1EEEED1Ev W
_ZNSt10_HashtableIN4Sass10SharedImplINS0_10ExpressionEEESt4pairIKS3_S3_ESaIS6_ENSt8__detail10_Select1stENS0_11ObjEqualityENS0_7ObjHashENS8_18_Mod_range_hashingENS8_20_Default_ranged_hashENS8_20_Prime_rehash_policyENS8_17_Hashtable_traitsILb1ELb0ELb1EEEED2Ev W
_ZNSt10_HashtableIN4Sass10SharedImplINS0_12SelectorListEEES3_SaIS3_ENSt8__detail9_IdentityENS0_14ObjPtrEqualityENS0_10ObjPtrHashENS5_18_Mod_range_hashingENS5_20_Default_ranged_hashENS5_20_Prime_rehash_policyENS5_17_Hashtable_traitsILb1ELb1ELb1EEEED1Ev W
_ZNSt10_HashtableIN4Sass10SharedImplINS0_12SelectorListEEES3_SaIS3_ENSt8__detail9_IdentityENS0_14ObjPtrEqualityENS0_10ObjPtrHashENS5_18_Mod_range_hashingENS5_20_Default_ranged_hashENS5_20_Prime_rehash_policyENS5_17_Hashtable_traitsILb1ELb1ELb1EEEED2Ev W
_ZNSt10_HashtableIN4Sass10SharedImplINS0_12SelectorListEEESt4pairIKS3_NS1_INS0_12CssMediaRuleEEEESaIS8_ENSt8__detail10_Select1stENS0_14ObjPtrEqualityENS0_10ObjPtrHashENSA_18_Mod_range_hashingENSA_20_Default_ranged_hashENSA_20_Prime_rehash_policyENSA_17_Hashtable_traitsILb1ELb0ELb1EEEE9_M_rehashEmRKm W
_ZNSt10_HashtableIN4Sass10SharedImplINS0_14SimpleSelectorEEES3_SaIS3_ENSt8__detail9_IdentityENS0_11ObjEqualityENS0_7ObjHashENS5_18_Mod_range_hashingENS5_20_Default_ranged_hashENS5_20_Prime_rehash_policyENS5_17_Hashtable_traitsILb1ELb1ELb1EEEE9_M_insertIRKS3_NS5_10_AllocNodeISaINS5_10_Hash_nodeIS3_Lb1EEEEEEEESt4pairINS5_14_Node_iteratorIS3_Lb1ELb1EEEbEOT_RKT0_St17integral_constantIbLb1EEm W
_ZNSt10_HashtableIN4Sass10SharedImplINS0_14SimpleSelectorEEES3_SaIS3_ENSt8__detail9_IdentityENS0_11ObjEqualityENS0_7ObjHashENS5_18_Mod_range_hashingENS5_20_Default_ranged_hashENS5_20_Prime_rehash_policyENS5_17_Hashtable_traitsILb1ELb1ELb1EEEE9_M_rehashEmRKm W
_ZNSt10_HashtableIN4Sass10SharedImplINS0_14SimpleSelectorEEES3_SaIS3_ENSt8__detail9_IdentityENS0_11ObjEqualityENS0_7ObjHashENS5_18_Mod_range_hashingENS5_20_Default_ranged_hashENS5_20_Prime_rehash_policyENS5_17_Hashtable_traitsILb1ELb1ELb1EEEED1Ev W
_ZNSt10_HashtableIN4Sass10SharedImplINS0_14SimpleSelectorEEES3_SaIS3_ENSt8__detail9_IdentityENS0_11ObjEqualityENS0_7ObjHashENS5_18_Mod_range_hashingENS5_20_Default_ranged_hashENS5_20_Prime_rehash_policyENS5_17_Hashtable_traitsILb1ELb1ELb1EEEED2Ev W
_ZNSt10_HashtableIN4Sass10SharedImplINS0_14SimpleSelectorEEESt4pairIKS3_mESaIS6_ENSt8__detail10_Select1stENS0_14ObjPtrEqualityENS0_10ObjPtrHashENS8_18_Mod_range_hashingENS8_20_Default_ranged_hashENS8_20_Prime_rehash_policyENS8_17_Hashtable_traitsILb1ELb0ELb1EEEE9_M_rehashEmRKm W
_ZNSt10_HashtableIN4Sass10SharedImplINS0_14SimpleSelectorEEESt4pairIKS3_NS0_11ordered_mapINS1_INS0_15ComplexSelectorEEENS0_9ExtensionENS0_7ObjHashENS0_11ObjEqualityESaIS4_IKS8_S9_EEEEESaISG_ENSt8__detail10_Select1stESB_SA_NSI_18_Mod_range_hashingENSI_20_Default_ranged_hashENSI_20_Prime_rehash_policyENSI_17_Hashtable_traitsILb1ELb0ELb1EEEE10_M_emplaceIJS4_IS3_SF_EEEES4_INSI_14_Node_iteratorISG_Lb0ELb1EEEbESt17integral_constantIbLb1EEDpOT_ W
_ZNSt10_HashtableIN4Sass10SharedImplINS0_14SimpleSelectorEEESt4pairIKS3_NS0_11ordered_mapINS1_INS0_15ComplexSelectorEEENS0_9ExtensionENS0_7ObjHashENS0_11ObjEqualityESaIS4_IKS8_S9_EEEEESaISG_ENSt8__detail10_Select1stESB_SA_NSI_18_Mod_range_hashingENSI_20_Default_ranged_hashENSI_20_Prime_rehash_policyENSI_17_Hashtable_traitsILb1ELb0ELb1EEEE21_M_insert_unique_nodeEmmPNSI_10_Hash_nodeISG_Lb1EEEm W
_ZNSt10_HashtableIN4Sass10SharedImplINS0_14SimpleSelectorEEESt4pairIKS3_NS0_11ordered_mapINS1_INS0_15ComplexSelectorEEENS0_9ExtensionENS0_7ObjHashENS0_11ObjEqualityESaIS4_IKS8_S9_EEEEESaISG_ENSt8__detail10_Select1stESB_SA_NSI_18_Mod_range_hashingENSI_20_Default_ranged_hashENSI_20_Prime_rehash_policyENSI_17_Hashtable_traitsILb1ELb0ELb1EEEE5clearEv W
_ZNSt10_HashtableIN4Sass10SharedImplINS0_14SimpleSelectorEEESt4pairIKS3_NS0_11ordered_mapINS1_INS0_15ComplexSelectorEEENS0_9ExtensionENS0_7ObjHashENS0_11ObjEqualityESaIS4_IKS8_S9_EEEEESaISG_ENSt8__detail10_Select1stESB_SA_NSI_18_Mod_range_hashingENSI_20_Default_ranged_hashENSI_20_Prime_rehash_policyENSI_17_Hashtable_traitsILb1ELb0ELb1EEEE9_M_rehashEmRKm W
_ZNSt10_HashtableIN4Sass10SharedImplINS0_14SimpleSelectorEEESt4pairIKS3_NS0_11ordered_mapINS1_INS0_15ComplexSelectorEEENS0_9ExtensionENS0_7ObjHashENS0_11ObjEqualityESaIS4_IKS8_S9_EEEEESaISG_ENSt8__detail10_Select1stESB_SA_NSI_18_Mod_range_hashingENSI_20_Default_ranged_hashENSI_20_Prime_rehash_policyENSI_17_Hashtable_traitsILb1ELb0ELb1EEEED1Ev W
_ZNSt10_HashtableIN4Sass10SharedImplINS0_14SimpleSelectorEEESt4pairIKS3_NS0_11ordered_mapINS1_INS0_15ComplexSelectorEEENS0_9ExtensionENS0_7ObjHashENS0_11ObjEqualityESaIS4_IKS8_S9_EEEEESaISG_ENSt8__detail10_Select1stESB_SA_NSI_18_Mod_range_hashingENSI_20_Default_ranged_hashENSI_20_Prime_rehash_policyENSI_17_Hashtable_traitsILb1ELb0ELb1EEEED2Ev W
_ZNSt10_HashtableIN4Sass10SharedImplINS0_14SimpleSelectorEEESt4pairIKS3_St13unordered_setINS1_INS0_12SelectorListEEENS0_10ObjPtrHashENS0_14ObjPtrEqualityESaIS8_EEESaISD_ENSt8__detail10_Select1stENS0_11ObjEqualityENS0_7ObjHashENSF_18_Mod_range_hashingENSF_20_Default_ranged_hashENSF_20_Prime_rehash_policyENSF_17_Hashtable_traitsILb1ELb0ELb1EEEE21_M_insert_unique_nodeEmmPNSF_10_Hash_nodeISD_Lb1EEEm W
_ZNSt10_HashtableIN4Sass10SharedImplINS0_14SimpleSelectorEEESt4pairIKS3_St13unordered_setINS1_INS0_12SelectorListEEENS0_10ObjPtrHashENS0_14ObjPtrEqualityESaIS8_EEESaISD_ENSt8__detail10_Select1stENS0_11ObjEqualityENS0_7ObjHashENSF_18_Mod_range_hashingENSF_20_Default_ranged_hashENSF_20_Prime_rehash_policyENSF_17_Hashtable_traitsILb1ELb0ELb1EEEE5clearEv W
_ZNSt10_HashtableIN4Sass10SharedImplINS0_14SimpleSelectorEEESt4pairIKS3_St13unordered_setINS1_INS0_12SelectorListEEENS0_10ObjPtrHashENS0_14ObjPtrEqualityESaIS8_EEESaISD_ENSt8__detail10_Select1stENS0_11ObjEqualityENS0_7ObjHashENSF_18_Mod_range_hashingENSF_20_Default_ranged_hashENSF_20_Prime_rehash_policyENSF_17_Hashtable_traitsILb1ELb0ELb1EEEE9_M_rehashEmRKm W
_ZNSt10_HashtableIN4Sass10SharedImplINS0_14SimpleSelectorEEESt4pairIKS3_St6vectorINS0_9ExtensionESaIS7_EEESaISA_ENSt8__detail10_Select1stENS0_11ObjEqualityENS0_7ObjHashENSC_18_Mod_range_hashingENSC_20_Default_ranged_hashENSC_20_Prime_rehash_policyENSC_17_Hashtable_traitsILb1ELb0ELb1EEEE4findERS5_ W
_ZNSt10_HashtableIN4Sass10SharedImplINS0_15ComplexSelectorEEES3_SaIS3_ENSt8__detail9_IdentityENS0_14ObjPtrEqualityENS0_10ObjPtrHashENS5_18_Mod_range_hashingENS5_20_Default_ranged_hashENS5_20_Prime_rehash_policyENS5_17_Hashtable_traitsILb1ELb1ELb1EEEE4findERKS3_ W
_ZNSt10_HashtableIN4Sass10SharedImplINS0_15ComplexSelectorEEES3_SaIS3_ENSt8__detail9_IdentityENS0_14ObjPtrEqualityENS0_10ObjPtrHashENS5_18_Mod_range_hashingENS5_20_Default_ranged_hashENS5_20_Prime_rehash_policyENS5_17_Hashtable_traitsILb1ELb1ELb1EEEE9_M_insertIRKS3_NS5_10_AllocNodeISaINS5_10_Hash_nodeIS3_Lb1EEEEEEEESt4pairINS5_14_Node_iteratorIS3_Lb1ELb1EEEbEOT_RKT0_St17integral_constantIbLb1EEm W
_ZNSt10_HashtableIN4Sass10SharedImplINS0_15ComplexSelectorEEES3_SaIS3_ENSt8__detail9_IdentityENS0_14ObjPtrEqualityENS0_10ObjPtrHashENS5_18_Mod_range_hashingENS5_20_Default_ranged_hashENS5_20_Prime_rehash_policyENS5_17_Hashtable_traitsILb1ELb1ELb1EEEE9_M_rehashEmRKm W
_ZNSt10_HashtableIN4Sass10SharedImplINS0_15ComplexSelectorEEESt4pairIKS3_NS0_9ExtensionEESaIS7_ENSt8__detail10_Select1stENS0_11ObjEqualityENS0_7ObjHashENS9_18_Mod_range_hashingENS9_20_Default_ranged_hashENS9_20_Prime_rehash_policyENS9_17_Hashtable_traitsILb1ELb0ELb1EEEE5clearEv W
_ZNSt10_HashtableIN4Sass10SharedImplINS0_15ComplexSelectorEEESt4pairIKS3_NS0_9ExtensionEESaIS7_ENSt8__detail10_Select1stENS0_11ObjEqualityENS0_7ObjHashENS9_18_Mod_range_hashingENS9_20_Default_ranged_hashENS9_20_Prime_rehash_policyENS9_17_Hashtable_traitsILb1ELb0ELb1EEEE9_M_assignIZNSI_C4ERKSI_EUlPKNS9_10_Hash_nodeIS7_Lb1EEEE_EEvSL_RKT_ W
_ZNSt10_HashtableIN4Sass10SharedImplINS0_15ComplexSelectorEEESt4pairIKS3_NS0_9ExtensionEESaIS7_ENSt8__detail10_Select1stENS0_11ObjEqualityENS0_7ObjHashENS9_18_Mod_range_hashingENS9_20_Default_ranged_hashENS9_20_Prime_rehash_policyENS9_17_Hashtable_traitsILb1ELb0ELb1EEEE9_M_rehashEmRKm W
_ZNSt10_HashtableIN4Sass10SharedImplINS0_15ComplexSelectorEEESt4pairIKS3_NS0_9ExtensionEESaIS7_ENSt8__detail10_Select1stENS0_11ObjEqualityENS0_7ObjHashENS9_18_Mod_range_hashingENS9_20_Default_ranged_hashENS9_20_Prime_rehash_policyENS9_17_Hashtable_traitsILb1ELb0ELb1EEEED1Ev W
_ZNSt10_HashtableIN4Sass10SharedImplINS0_15ComplexSelectorEEESt4pairIKS3_NS0_9ExtensionEESaIS7_ENSt8__detail10_Select1stENS0_11ObjEqualityENS0_7ObjHashENS9_18_Mod_range_hashingENS9_20_Default_ranged_hashENS9_20_Prime_rehash_policyENS9_17_Hashtable_traitsILb1ELb0ELb1EEEED2Ev W
_ZNSt10_HashtableINSt7__cxx1112basic_stringIcSt11char_traitsIcESaIcEEES5_SaIS5_ENSt8__detail9_IdentityESt8equal_toIS5_ESt4hashIS5_ENS7_18_Mod_range_hashingENS7_20_Default_ranged_hashENS7_20_Prime_rehash_policyENS7_17_Hashtable_traitsILb1ELb1ELb1EEEEC1IPKS5_EET_SM_mRKSC_RKSD_RKSE_RKSA_RKS8_RKS6_ W
_ZNSt10_HashtableINSt7__cxx1112basic_stringIcSt11char_traitsIcESaIcEEES5_SaIS5_ENSt8__detail9_IdentityESt8equal_toIS5_ESt4hashIS5_ENS7_18_Mod_range_hashingENS7_20_Default_ranged_hashENS7_20_Prime_rehash_policyENS7_17_Hashtable_traitsILb1ELb1ELb1EEEEC2IPKS5_EET_SM_mRKSC_RKSD_RKSE_RKSA_RKS8_RKS6_ W
_ZNSt10_HashtableINSt7__cxx1112basic_stringIcSt11char_traitsIcESaIcEEESt4pairIKS5_PKN4Sass10Color_RGBAEESaISC_ENSt8__detail10_Select1stESt8equal_toIS5_ESt4hashIS5_ENSE_18_Mod_range_hashingENSE_20_Default_ranged_hashENSE_20_Prime_rehash_policyENSE_17_Hashtable_traitsILb1ELb0ELb1EEEEC1IPKSC_EET_ST_mRKSJ_RKSK_RKSL_RKSH_RKSF_RKSD_ W
_ZNSt10_HashtableINSt7__cxx1112basic_stringIcSt11char_traitsIcESaIcEEESt4pairIKS5_PKN4Sass10Color_RGBAEESaISC_ENSt8__detail10_Select1stESt8equal_toIS5_ESt4hashIS5_ENSE_18_Mod_range_hashingENSE_20_Default_ranged_hashENSE_20_Prime_rehash_policyENSE_17_Hashtable_traitsILb1ELb0ELb1EEEEC2IPKSC_EET_ST_mRKSJ_RKSK_RKSL_RKSH_RKSF_RKSD_ W
_ZNSt10_HashtableIPKN4Sass14SimpleSelectorES3_SaIS3_ENSt8__detail9_IdentityENS0_14PtrObjEqualityENS0_10PtrObjHashENS5_18_Mod_range_hashingENS5_20_Default_ranged_hashENS5_20_Prime_rehash_policyENS5_17_Hashtable_traitsILb1ELb1ELb1EEEE9_M_rehashEmRKm W
_ZNSt10_HashtableIPKN4Sass14SimpleSelectorES3_SaIS3_ENSt8__detail9_IdentityENS0_14PtrObjEqualityENS0_10PtrObjHashENS5_18_Mod_range_hashingENS5_20_Default_ranged_hashENS5_20_Prime_rehash_policyENS5_17_Hashtable_traitsILb1ELb1ELb1EEEED1Ev W
_ZNSt10_HashtableIPKN4Sass14SimpleSelectorES3_SaIS3_ENSt8__detail9_IdentityENS0_14PtrObjEqualityENS0_10PtrObjHashENS5_18_Mod_range_hashingENS5_20_Default_ranged_hashENS5_20_Prime_rehash_policyENS5_17_Hashtable_traitsILb1ELb1ELb1EEEED2Ev W
_ZNSt10_HashtableIPKN4Sass15ComplexSelectorES3_SaIS3_ENSt8__detail9_IdentityENS0_14PtrObjEqualityENS0_10PtrObjHashENS5_18_Mod_range_hashingENS5_20_Default_ranged_hashENS5_20_Prime_rehash_policyENS5_17_Hashtable_traitsILb1ELb1ELb1EEEE9_M_rehashEmRKm W
_ZNSt10_HashtableIPKN4Sass15ComplexSelectorES3_SaIS3_ENSt8__detail9_IdentityENS0_14PtrObjEqualityENS0_10PtrObjHashENS5_18_Mod_range_hashingENS5_20_Default_ranged_hashENS5_20_Prime_rehash_policyENS5_17_Hashtable_traitsILb1ELb1ELb1EEEED1Ev W
_ZNSt10_HashtableIPKN4Sass15ComplexSelectorES3_SaIS3_ENSt8__detail9_IdentityENS0_14PtrObjEqualityENS0_10PtrObjHashENS5_18_Mod_range_hashingENS5_20_Default_ranged_hashENS5_20_Prime_rehash_policyENS5_17_Hashtable_traitsILb1ELb1ELb1EEEED2Ev W
_ZNSt3mapINSt7__cxx1112basic_stringIcSt11char_traitsIcESaIcEEEN4Sass10SharedImplINS6_8AST_NodeEEESt4lessIS5_ESaISt4pairIKS5_S9_EEEixERSD_ W
_ZNSt4pairIKNSt7__cxx1112basic_stringIcSt11char_traitsIcESaIcEEEN4Sass10StyleSheetEED1Ev W
_ZNSt4pairIKNSt7__cxx1112basic_stringIcSt11char_traitsIcESaIcEEEN4Sass10StyleSheetEED2Ev W
_ZNSt4pairINSt7__cxx1112basic_stringIcSt11char_traitsIcESaIcEEEN4Sass10SharedImplINS6_13Function_CallEEEED1Ev W
_ZNSt4pairINSt7__cxx1112basic_stringIcSt11char_traitsIcESaIcEEEN4Sass10SharedImplINS6_13Function_CallEEEED2Ev W
_ZNSt5dequeINSt7__cxx1112basic_stringIcSt11char_traitsIcESaIcEEESaIS5_EE12emplace_backIJS5_EEEvDpOT_ W
_ZNSt6vectorI11Sass_CalleeSaIS0_EE12emplace_backIJS0_EEEvDpOT_ W
_ZNSt6vectorI11Sass_CalleeSaIS0_EE17_M_realloc_insertIJS0_EEEvN9__gnu_cxx17__normal_iteratorIPS0_S2_EEDpOT_ W
_ZNSt6vectorIcSaIcEE17_M_realloc_insertIJRKcEEEvN9__gnu_cxx17__normal_iteratorIPcS1_EEDpOT_ W
_ZNSt6vectorImSaImEE17_M_realloc_insertIJRKmEEEvN9__gnu_cxx17__normal_iteratorIPmS1_EEDpOT_ W
_ZNSt6vectorIN4Sass10SharedImplINS0_10ExpressionEEESaIS3_EE12emplace_backIJS3_EEEvDpOT_ W
_ZNSt6vectorIN4Sass10SharedImplINS0_10ExpressionEEESaIS3_EE13_M_insert_auxIS3_EEvN9__gnu_cxx17__normal_iteratorIPS3_S5_EEOT_ W
_ZNSt6vectorIN4Sass10SharedImplINS0_10ExpressionEEESaIS3_EE15_M_range_insertIN9__gnu_cxx17__normal_iteratorIPKS3_S5_EEEEvNS8_IPS3_S5_EET_SE_St20forward_iterator_tag W
_ZNSt6vectorIN4Sass10SharedImplINS0_10ExpressionEEESaIS3_EE17_M_realloc_insertIJRKS3_EEEvN9__gnu_cxx17__normal_iteratorIPS3_S5_EEDpOT_ W
_ZNSt6vectorIN4Sass10SharedImplINS0_10ExpressionEEESaIS3_EE17_M_realloc_insertIJS3_EEEvN9__gnu_cxx17__normal_iteratorIPS3_S5_EEDpOT_ W
_ZNSt6vectorIN4Sass10SharedImplINS0_10ExpressionEEESaIS3_EE7reserveEm W
_ZNSt6vectorIN4Sass10SharedImplINS0_10ExpressionEEESaIS3_EE8_M_eraseEN9__gnu_cxx17__normal_iteratorIPS3_S5_EE W
_ZNSt6vectorIN4Sass10SharedImplINS0_10ExpressionEEESaIS3_EEaSERKS5_ W
_ZNSt6vectorIN4Sass10SharedImplINS0_10ExpressionEEESaIS3_EED1Ev W
_ZNSt6vectorIN4Sass10SharedImplINS0_10ExpressionEEESaIS3_EED2Ev W
_ZNSt6vectorIN4Sass10SharedImplINS0_12CssMediaRuleEEESaIS3_EE17_M_realloc_insertIJRKS3_EEEvN9__gnu_cxx17__normal_iteratorIPS3_S5_EEDpOT_ W
_ZNSt6vectorIN4Sass10SharedImplINS0_12CssMediaRuleEEESaIS3_EE17_M_realloc_insertIJS3_EEEvN9__gnu_cxx17__normal_iteratorIPS3_S5_EEDpOT_ W
_ZNSt6vectorIN4Sass10SharedImplINS0_12SelectorListEEESaIS3_EE12emplace_backIJS3_EEEvDpOT_ W
_ZNSt6vectorIN4Sass10SharedImplINS0_12SelectorListEEESaIS3_EE17_M_realloc_insertIJRKS3_EEEvN9__gnu_cxx17__normal_iteratorIPS3_S5_EEDpOT_ W
_ZNSt6vectorIN4Sass10SharedImplINS0_12SelectorListEEESaIS3_EE17_M_realloc_insertIJS3_EEEvN9__gnu_cxx17__normal_iteratorIPS3_S5_EEDpOT_ W
_ZNSt6vectorIN4Sass10SharedImplINS0_12SelectorListEEESaIS3_EED1Ev W
_ZNSt6vectorIN4Sass10SharedImplINS0_12SelectorListEEESaIS3_EED2Ev W
_ZNSt6vectorIN4Sass10SharedImplINS0_13CssMediaQueryEEESaIS3_EE15_M_range_insertIN9__gnu_cxx17__normal_iteratorIPKS3_S5_EEEEvNS8_IPS3_S5_EET_SE_St20forward_iterator_tag W
_ZNSt6vectorIN4Sass10SharedImplINS0_13CssMediaQueryEEESaIS3_EE17_M_realloc_insertIJRKS3_EEEvN9__gnu_cxx17__normal_iteratorIPS3_S5_EEDpOT_ W
_ZNSt6vectorIN4Sass10SharedImplINS0_13CssMediaQueryEEESaIS3_EED1Ev W
_ZNSt6vectorIN4Sass10SharedImplINS0_13CssMediaQueryEEESaIS3_EED2Ev W
_ZNSt6vectorIN4Sass10SharedImplINS0_14PseudoSelectorEEESaIS3_EE17_M_realloc_insertIJS3_EEEvN9__gnu_cxx17__normal_iteratorIPS3_S5_EEDpOT_ W
_ZNSt6vectorIN4Sass10SharedImplINS0_14PseudoSelectorEEESaIS3_EED1Ev W
_ZNSt6vectorIN4Sass10SharedImplINS0_14PseudoSelectorEEESaIS3_EED2Ev W
_ZNSt6vectorIN4Sass10SharedImplINS0_14SimpleSelectorEEESaIS3_EE13_M_insert_auxIS3_EEvN9__gnu_cxx17__normal_iteratorIPS3_S5_EEOT_ W
_ZNSt6vectorIN4Sass10SharedImplINS0_14SimpleSelectorEEESaIS3_EE15_M_range_insertIN9__gnu_cxx17__normal_iteratorIPKS3_S5_EEEEvNS8_IPS3_S5_EET_SE_St20forward_iterator_tag W
_ZNSt6vectorIN4Sass10SharedImplINS0_14SimpleSelectorEEESaIS3_EE15_M_range_insertIN9__gnu_cxx17__normal_iteratorIPS3_S5_EEEEvSA_T_SB_St20forward_iterator_tag W
_ZNSt6vectorIN4Sass10SharedImplINS0_14SimpleSelectorEEESaIS3_EE17_M_realloc_insertIJRKS3_EEEvN9__gnu_cxx17__normal_iteratorIPS3_S5_EEDpOT_ W
_ZNSt6vectorIN4Sass10SharedImplINS0_14SimpleSelectorEEESaIS3_EE17_M_realloc_insertIJS3_EEEvN9__gnu_cxx17__normal_iteratorIPS3_S5_EEDpOT_ W
_ZNSt6vectorIN4Sass10SharedImplINS0_14SimpleSelectorEEESaIS3_EED1Ev W
_ZNSt6vectorIN4Sass10SharedImplINS0_14SimpleSelectorEEESaIS3_EED2Ev W
_ZNSt6vectorIN4Sass10SharedImplINS0_15ComplexSelectorEEESaIS3_EE13_M_insert_auxIS3_EEvN9__gnu_cxx17__normal_iteratorIPS3_S5_EEOT_ W
_ZNSt6vectorIN4Sass10SharedImplINS0_15ComplexSelectorEEESaIS3_EE15_M_range_insertIN9__gnu_cxx17__normal_iteratorIPKS3_S5_EEEEvNS8_IPS3_S5_EET_SE_St20forward_iterator_tag W
_ZNSt6vectorIN4Sass10SharedImplINS0_15ComplexSelectorEEESaIS3_EE15_M_range_insertIN9__gnu_cxx17__normal_iteratorIPS3_S5_EEEEvSA_T_SB_St20forward_iterator_tag W
_ZNSt6vectorIN4Sass10SharedImplINS0_15ComplexSelectorEEESaIS3_EE17_M_realloc_insertIJRKS3_EEEvN9__gnu_cxx17__normal_iteratorIPS3_S5_EEDpOT_ W
_ZNSt6vectorIN4Sass10SharedImplINS0_15ComplexSelectorEEESaIS3_EE17_M_realloc_insertIJS3_EEEvN9__gnu_cxx17__normal_iteratorIPS3_S5_EEDpOT_ W
_ZNSt6vectorIN4Sass10SharedImplINS0_15ComplexSelectorEEESaIS3_EE6insertEN9__gnu_cxx17__normal_iteratorIPKS3_S5_EERS8_ W
_ZNSt6vectorIN4Sass10SharedImplINS0_15ComplexSelectorEEESaIS3_EE9push_backERKS3_ W
_ZNSt6vectorIN4Sass10SharedImplINS0_15ComplexSelectorEEESaIS3_EEC1ERKS5_ W
_ZNSt6vectorIN4Sass10SharedImplINS0_15ComplexSelectorEEESaIS3_EEC1ESt16initializer_listIS3_ERKS4_ W
_ZNSt6vectorIN4Sass10SharedImplINS0_15ComplexSelectorEEESaIS3_EEC2ERKS5_ W
_ZNSt6vectorIN4Sass10SharedImplINS0_15ComplexSelectorEEESaIS3_EEC2ESt16initializer_listIS3_ERKS4_ W
_ZNSt6vectorIN4Sass10SharedImplINS0_15ComplexSelectorEEESaIS3_EED1Ev W
_ZNSt6vectorIN4Sass10SharedImplINS0_15ComplexSelectorEEESaIS3_EED2Ev W
_ZNSt6vectorIN4Sass10SharedImplINS0_17SelectorComponentEEESaIS3_EE12emplace_backIJS3_EEEvDpOT_ W
_ZNSt6vectorIN4Sass10SharedImplINS0_17SelectorComponentEEESaIS3_EE13_M_assign_auxIPKS3_EEvT_S9_St20forward_iterator_tag W
_ZNSt6vectorIN4Sass10SharedImplINS0_17SelectorComponentEEESaIS3_EE13_M_insert_auxIS3_EEvN9__gnu_cxx17__normal_iteratorIPS3_S5_EEOT_ W
_ZNSt6vectorIN4Sass10SharedImplINS0_17SelectorComponentEEESaIS3_EE14_M_insert_rvalEN9__gnu_cxx17__normal_iteratorIPKS3_S5_EEOS3_ W
_ZNSt6vectorIN4Sass10SharedImplINS0_17SelectorComponentEEESaIS3_EE15_M_range_insertIN9__gnu_cxx17__normal_iteratorIPKS3_S5_EEEEvNS8_IPS3_S5_EET_SE_St20forward_iterator_tag W
_ZNSt6vectorIN4Sass10SharedImplINS0_17SelectorComponentEEESaIS3_EE17_M_realloc_insertIJRKS3_EEEvN9__gnu_cxx17__normal_iteratorIPS3_S5_EEDpOT_ W
_ZNSt6vectorIN4Sass10SharedImplINS0_17SelectorComponentEEESaIS3_EE17_M_realloc_insertIJS3_EEEvN9__gnu_cxx17__normal_iteratorIPS3_S5_EEDpOT_ W
_ZNSt6vectorIN4Sass10SharedImplINS0_17SelectorComponentEEESaIS3_EE8_M_eraseEN9__gnu_cxx17__normal_iteratorIPS3_S5_EE W
_ZNSt6vectorIN4Sass10SharedImplINS0_17SelectorComponentEEESaIS3_EEaSERKS5_ W
_ZNSt6vectorIN4Sass10SharedImplINS0_17SelectorComponentEEESaIS3_EEC1ESt16initializer_listIS3_ERKS4_ W
_ZNSt6vectorIN4Sass10SharedImplINS0_17SelectorComponentEEESaIS3_EEC2ESt16initializer_listIS3_ERKS4_ W
_ZNSt6vectorIN4Sass10SharedImplINS0_17SelectorComponentEEESaIS3_EED1Ev W
_ZNSt6vectorIN4Sass10SharedImplINS0_17SelectorComponentEEESaIS3_EED2Ev W
_ZNSt6vectorIN4Sass10SharedImplINS0_22Media_Query_ExpressionEEESaIS3_EE17_M_realloc_insertIJRKS3_EEEvN9__gnu_cxx17__normal_iteratorIPS3_S5_EEDpOT_ W
_ZNSt6vectorIN4Sass10SharedImplINS0_22Media_Query_ExpressionEEESaIS3_EE7reserveEm W
_ZNSt6vectorIN4Sass10SharedImplINS0_5BlockEEESaIS3_EE17_M_realloc_insertIJRKS3_EEEvN9__gnu_cxx17__normal_iteratorIPS3_S5_EEDpOT_ W
_ZNSt6vectorIN4Sass10SharedImplINS0_8ArgumentEEESaIS3_EE13_M_insert_auxIS3_EEvN9__gnu_cxx17__normal_iteratorIPS3_S5_EEOT_ W
_ZNSt6vectorIN4Sass10SharedImplINS0_8ArgumentEEESaIS3_EE15_M_range_insertIN9__gnu_cxx17__normal_iteratorIPKS3_S5_EEEEvNS8_IPS3_S5_EET_SE_St20forward_iterator_tag W
_ZNSt6vectorIN4Sass10SharedImplINS0_8ArgumentEEESaIS3_EE17_M_realloc_insertIJRKS3_EEEvN9__gnu_cxx17__normal_iteratorIPS3_S5_EEDpOT_ W
_ZNSt6vectorIN4Sass10SharedImplINS0_8AST_NodeEEESaIS3_EE12emplace_backIJS3_EEEvDpOT_ W
_ZNSt6vectorIN4Sass10SharedImplINS0_8AST_NodeEEESaIS3_EE17_M_realloc_insertIJS3_EEEvN9__gnu_cxx17__normal_iteratorIPS3_S5_EEDpOT_ W
_ZNSt6vectorIN4Sass10SharedImplINS0_8PreValueEEESaIS3_EE15_M_range_insertIN9__gnu_cxx17__normal_iteratorIPKS3_S5_EEEEvNS8_IPS3_S5_EET_SE_St20forward_iterator_tag W
_ZNSt6vectorIN4Sass10SharedImplINS0_8PreValueEEESaIS3_EE17_M_realloc_insertIJRKS3_EEEvN9__gnu_cxx17__normal_iteratorIPS3_S5_EEDpOT_ W
_ZNSt6vectorIN4Sass10SharedImplINS0_8PreValueEEESaIS3_EE7reserveEm W
_ZNSt6vectorIN4Sass10SharedImplINS0_9ParameterEEESaIS3_EE17_M_realloc_insertIJRKS3_EEEvN9__gnu_cxx17__normal_iteratorIPS3_S5_EEDpOT_ W
_ZNSt6vectorIN4Sass10SharedImplINS0_9StatementEEESaIS3_EE15_M_range_insertIN9__gnu_cxx17__normal_iteratorIPKS3_S5_EEEEvNS8_IPS3_S5_EET_SE_St20forward_iterator_tag W
_ZNSt6vectorIN4Sass10SharedImplINS0_9StatementEEESaIS3_EE17_M_realloc_insertIJRKS3_EEEvN9__gnu_cxx17__normal_iteratorIPS3_S5_EEDpOT_ W
_ZNSt6vectorIN4Sass10SharedImplINS0_9StatementEEESaIS3_EE6insertEN9__gnu_cxx17__normal_iteratorIPKS3_S5_EERS8_ W
_ZNSt6vectorIN4Sass10SharedImplINS0_9StatementEEESaIS3_EE7reserveEm W
_ZNSt6vectorIN4Sass6Parser5ScopeESaIS2_EE12emplace_backIJS2_EEEvDpOT_ W
_ZNSt6vectorIN4Sass6Parser5ScopeESaIS2_EE17_M_realloc_insertIJS2_EEEvN9__gnu_cxx17__normal_iteratorIPS2_S4_EEDpOT_ W
_ZNSt6vectorIN4Sass7IncludeESaIS1_EE12emplace_backIJS1_EEEvDpOT_ W
_ZNSt6vectorIN4Sass7IncludeESaIS1_EE15_M_range_insertIN9__gnu_cxx17__normal_iteratorIPS1_S3_EEEEvS8_T_S9_St20forward_iterator_tag W
_ZNSt6vectorIN4Sass7IncludeESaIS1_EE17_M_realloc_insertIJRKS1_EEEvN9__gnu_cxx17__normal_iteratorIPS1_S3_EEDpOT_ W
_ZNSt6vectorIN4Sass7IncludeESaIS1_EE17_M_realloc_insertIJS1_EEEvN9__gnu_cxx17__normal_iteratorIPS1_S3_EEDpOT_ W
_ZNSt6vectorIN4Sass7IncludeESaIS1_EED1Ev W
_ZNSt6vectorIN4Sass7IncludeESaIS1_EED2Ev W
_ZNSt6vectorIN4Sass7MappingESaIS1_EE12emplace_backIJS1_EEEvDpOT_ W
_ZNSt6vectorIN4Sass7MappingESaIS1_EE15_M_range_insertIN9__gnu_cxx17__normal_iteratorIPKS1_S3_EEEEvNS6_IPS1_S3_EET_SC_St20forward_iterator_tag W
_ZNSt6vectorIN4Sass7MappingESaIS1_EE17_M_realloc_insertIJS1_EEEvN9__gnu_cxx17__normal_iteratorIPS1_S3_EEDpOT_ W
_ZNSt6vectorIN4Sass7OperandESaIS1_EE12emplace_backIJS1_EEEvDpOT_ W
_ZNSt6vectorIN4Sass7OperandESaIS1_EE17_M_realloc_insertIJS1_EEEvN9__gnu_cxx17__normal_iteratorIPS1_S3_EEDpOT_ W
_ZNSt6vectorIN4Sass8ResourceESaIS1_EE17_M_realloc_insertIJRKS1_EEEvN9__gnu_cxx17__normal_iteratorIPS1_S3_EEDpOT_ W
_ZNSt6vectorIN4Sass9BacktraceESaIS1_EE12emplace_backIJS1_EEEvDpOT_ W
_ZNSt6vectorIN4Sass9BacktraceESaIS1_EE17_M_realloc_insertIJS1_EEEvN9__gnu_cxx17__normal_iteratorIPS1_S3_EEDpOT_ W
_ZNSt6vectorIN4Sass9BacktraceESaIS1_EEC1ERKS3_ W
_ZNSt6vectorIN4Sass9BacktraceESaIS1_EEC2ERKS3_ W
_ZNSt6vectorIN4Sass9BacktraceESaIS1_EED1Ev W
_ZNSt6vectorIN4Sass9BacktraceESaIS1_EED2Ev W
_ZNSt6vectorIN4Sass9ExtensionESaIS1_EE15_M_range_insertIN9__gnu_cxx17__normal_iteratorIPKS1_S3_EEEEvNS6_IPS1_S3_EET_SC_St20forward_iterator_tag W
_ZNSt6vectorIN4Sass9ExtensionESaIS1_EE17_M_realloc_insertIJRKS1_EEEvN9__gnu_cxx17__normal_iteratorIPS1_S3_EEDpOT_ W
_ZNSt6vectorIN4Sass9ExtensionESaIS1_EEaSERKS3_ W
_ZNSt6vectorIN4Sass9ExtensionESaIS1_EEC1ERKS3_ W
_ZNSt6vectorIN4Sass9ExtensionESaIS1_EEC2ERKS3_ W
_ZNSt6vectorIN4Sass9ExtensionESaIS1_EED1Ev W
_ZNSt6vectorIN4Sass9ExtensionESaIS1_EED2Ev W
_ZNSt6vectorINSt7__cxx1112basic_stringIcSt11char_traitsIcESaIcEEESaIS5_EE12emplace_backIJS5_EEEvDpOT_ W
_ZNSt6vectorINSt7__cxx1112basic_stringIcSt11char_traitsIcESaIcEEESaIS5_EE15_M_range_insertIN9__gnu_cxx17__normal_iteratorIPKS5_S7_EEEEvNSA_IPS5_S7_EET_SG_St20forward_iterator_tag W
_ZNSt6vectorINSt7__cxx1112basic_stringIcSt11char_traitsIcESaIcEEESaIS5_EE15_M_range_insertIN9__gnu_cxx17__normal_iteratorIPS5_S7_EEEEvSC_T_SD_St20forward_iterator_tag W
_ZNSt6vectorINSt7__cxx1112basic_stringIcSt11char_traitsIcESaIcEEESaIS5_EE17_M_realloc_insertIJRKS5_EEEvN9__gnu_cxx17__normal_iteratorIPS5_S7_EEDpOT_ W
_ZNSt6vectorINSt7__cxx1112basic_stringIcSt11char_traitsIcESaIcEEESaIS5_EE17_M_realloc_insertIJS5_EEEvN9__gnu_cxx17__normal_iteratorIPS5_S7_EEDpOT_ W
_ZNSt6vectorINSt7__cxx1112basic_stringIcSt11char_traitsIcESaIcEEESaIS5_EE6insertIN9__gnu_cxx17__normal_iteratorIPS5_S7_EEvEESC_NSA_IPKS5_S7_EET_SG_ W
_ZNSt6vectorINSt7__cxx1112basic_stringIcSt11char_traitsIcESaIcEEESaIS5_EE8_M_eraseEN9__gnu_cxx17__normal_iteratorIPS5_S7_EE W
_ZNSt6vectorINSt7__cxx1112basic_stringIcSt11char_traitsIcESaIcEEESaIS5_EE8_M_eraseEN9__gnu_cxx17__normal_iteratorIPS5_S7_EESB_ W
_ZNSt6vectorINSt7__cxx1112basic_stringIcSt11char_traitsIcESaIcEEESaIS5_EEaSERKS7_ W
_ZNSt6vectorINSt7__cxx1112basic_stringIcSt11char_traitsIcESaIcEEESaIS5_EEC1ERKS7_ W
_ZNSt6vectorINSt7__cxx1112basic_stringIcSt11char_traitsIcESaIcEEESaIS5_EEC2ERKS7_ W
_ZNSt6vectorINSt7__cxx1112basic_stringIcSt11char_traitsIcESaIcEEESaIS5_EED1Ev W
_ZNSt6vectorINSt7__cxx1112basic_stringIcSt11char_traitsIcESaIcEEESaIS5_EED2Ev W
_ZNSt6vectorIP11Sass_ImportSaIS1_EE17_M_realloc_insertIJRKS1_EEEvN9__gnu_cxx17__normal_iteratorIPS1_S3_EEDpOT_ W
_ZNSt6vectorIP13Sass_FunctionSaIS1_EE17_M_realloc_insertIJRKS1_EEEvN9__gnu_cxx17__normal_iteratorIPS1_S3_EEDpOT_ W
_ZNSt6vectorIP13Sass_ImporterSaIS1_EE17_M_realloc_insertIJRKS1_EEEvN9__gnu_cxx17__normal_iteratorIPS1_S3_EEDpOT_ W
_ZNSt6vectorIPcSaIS0_EE17_M_realloc_insertIJRKS0_EEEvN9__gnu_cxx17__normal_iteratorIPS0_S2_EEDpOT_ W
_ZNSt6vectorIPKN4Sass14SimpleSelectorESaIS3_EE17_M_realloc_insertIJRKS3_EEEvN9__gnu_cxx17__normal_iteratorIPS3_S5_EEDpOT_ W
_ZNSt6vectorIPN4Sass11EnvironmentINS0_10SharedImplINS0_8AST_NodeEEEEESaIS6_EE12emplace_backIJS6_EEEvDpOT_ W
_ZNSt6vectorIPN4Sass11EnvironmentINS0_10SharedImplINS0_8AST_NodeEEEEESaIS6_EE17_M_realloc_insertIJRKS6_EEEvN9__gnu_cxx17__normal_iteratorIPS6_S8_EEDpOT_ W
_ZNSt6vectorIPN4Sass11EnvironmentINS0_10SharedImplINS0_8AST_NodeEEEEESaIS6_EE17_M_realloc_insertIJS6_EEEvN9__gnu_cxx17__normal_iteratorIPS6_S8_EEDpOT_ W
_ZNSt6vectorIPN4Sass5BlockESaIS2_EE12emplace_backIJS2_EEEvDpOT_ W
_ZNSt6vectorIPN4Sass5BlockESaIS2_EE17_M_realloc_insertIJS2_EEEvN9__gnu_cxx17__normal_iteratorIPS2_S4_EEDpOT_ W
_ZNSt6vectorIPN4Sass8AST_NodeESaIS2_EE12emplace_backIJS2_EEEvDpOT_ W
_ZNSt6vectorIPN4Sass8AST_NodeESaIS2_EE17_M_realloc_insertIJS2_EEEvN9__gnu_cxx17__normal_iteratorIPS2_S4_EEDpOT_ W
_ZNSt6vectorIPN4Sass9StatementESaIS2_EE12emplace_backIJS2_EEEvDpOT_ W
_ZNSt6vectorIPN4Sass9StatementESaIS2_EE17_M_realloc_insertIJRKS2_EEEvN9__gnu_cxx17__normal_iteratorIPS2_S4_EEDpOT_ W
_ZNSt6vectorIPN4Sass9StatementESaIS2_EE17_M_realloc_insertIJS2_EEEvN9__gnu_cxx17__normal_iteratorIPS2_S4_EEDpOT_ W
_ZNSt6vectorIPN4Sass9StatementESaIS2_EEaSERKS4_ W
_ZNSt6vectorIS_IN4Sass10SharedImplINS0_15ComplexSelectorEEESaIS3_EESaIS5_EE12emplace_backIJS5_EEEvDpOT_ W
_ZNSt6vectorIS_IN4Sass10SharedImplINS0_15ComplexSelectorEEESaIS3_EESaIS5_EE17_M_realloc_insertIJRKS5_EEEvN9__gnu_cxx17__normal_iteratorIPS5_S7_EEDpOT_ W
_ZNSt6vectorIS_IN4Sass10SharedImplINS0_15ComplexSelectorEEESaIS3_EESaIS5_EED1Ev W
_ZNSt6vectorIS_IN4Sass10SharedImplINS0_15ComplexSelectorEEESaIS3_EESaIS5_EED2Ev W
_ZNSt6vectorIS_IN4Sass10SharedImplINS0_17SelectorComponentEEESaIS3_EESaIS5_EE12emplace_backIJS5_EEEvDpOT_ W
_ZNSt6vectorIS_IN4Sass10SharedImplINS0_17SelectorComponentEEESaIS3_EESaIS5_EE13_M_insert_auxIS5_EEvN9__gnu_cxx17__normal_iteratorIPS5_S7_EEOT_ W
_ZNSt6vectorIS_IN4Sass10SharedImplINS0_17SelectorComponentEEESaIS3_EESaIS5_EE14_M_insert_rvalEN9__gnu_cxx17__normal_iteratorIPKS5_S7_EEOS5_ W
_ZNSt6vectorIS_IN4Sass10SharedImplINS0_17SelectorComponentEEESaIS3_EESaIS5_EE17_M_realloc_insertIJRKS5_EEEvN9__gnu_cxx17__normal_iteratorIPS5_S7_EEDpOT_ W
_ZNSt6vectorIS_IN4Sass10SharedImplINS0_17SelectorComponentEEESaIS3_EESaIS5_EE17_M_realloc_insertIJS5_EEEvN9__gnu_cxx17__normal_iteratorIPS5_S7_EEDpOT_ W
_ZNSt6vectorIS_IN4Sass10SharedImplINS0_17SelectorComponentEEESaIS3_EESaIS5_EE8_M_eraseEN9__gnu_cxx17__normal_iteratorIPS5_S7_EE W
_ZNSt6vectorIS_IN4Sass10SharedImplINS0_17SelectorComponentEEESaIS3_EESaIS5_EEaSERKS7_ W
_ZNSt6vectorIS_IN4Sass10SharedImplINS0_17SelectorComponentEEESaIS3_EESaIS5_EEC1ESt16initializer_listIS5_ERKS6_ W
_ZNSt6vectorIS_IN4Sass10SharedImplINS0_17SelectorComponentEEESaIS3_EESaIS5_EEC2ESt16initializer_listIS5_ERKS6_ W
_ZNSt6vectorIS_IN4Sass10SharedImplINS0_17SelectorComponentEEESaIS3_EESaIS5_EED1Ev W
_ZNSt6vectorIS_IN4Sass10SharedImplINS0_17SelectorComponentEEESaIS3_EESaIS5_EED2Ev W
_ZNSt6vectorIS_IN4Sass9ExtensionESaIS1_EESaIS3_EE12emplace_backIJS3_EEEvDpOT_ W
_ZNSt6vectorIS_IN4Sass9ExtensionESaIS1_EESaIS3_EE15_M_range_insertIN9__gnu_cxx17__normal_iteratorIPS3_S5_EEEEvSA_T_SB_St20forward_iterator_tag W
_ZNSt6vectorIS_IN4Sass9ExtensionESaIS1_EESaIS3_EE17_M_realloc_insertIJRKS3_EEEvN9__gnu_cxx17__normal_iteratorIPS3_S5_EEDpOT_ W
_ZNSt6vectorIS_IN4Sass9ExtensionESaIS1_EESaIS3_EED1Ev W
_ZNSt6vectorIS_IN4Sass9ExtensionESaIS1_EESaIS3_EED2Ev W
_ZNSt6vectorIS_IS_IN4Sass10SharedImplINS0_17SelectorComponentEEESaIS3_EESaIS5_EESaIS7_EE12emplace_backIJS7_EEEvDpOT_ W
_ZNSt6vectorIS_IS_IN4Sass10SharedImplINS0_17SelectorComponentEEESaIS3_EESaIS5_EESaIS7_EE17_M_realloc_insertIJRKS7_EEEvN9__gnu_cxx17__normal_iteratorIPS7_S9_EEDpOT_ W
_ZNSt6vectorIS_IS_IN4Sass10SharedImplINS0_17SelectorComponentEEESaIS3_EESaIS5_EESaIS7_EE17_M_realloc_insertIJS7_EEEvN9__gnu_cxx17__normal_iteratorIPS7_S9_EEDpOT_ W
_ZNSt6vectorIS_IS_IN4Sass10SharedImplINS0_17SelectorComponentEEESaIS3_EESaIS5_EESaIS7_EE9push_backERKS7_ W
_ZNSt6vectorIS_IS_IN4Sass10SharedImplINS0_17SelectorComponentEEESaIS3_EESaIS5_EESaIS7_EED1Ev W
_ZNSt6vectorIS_IS_IN4Sass10SharedImplINS0_17SelectorComponentEEESaIS3_EESaIS5_EESaIS7_EED2Ev W
_ZNSt6vectorISt4pairIbN4Sass10SharedImplINS1_5BlockEEEESaIS5_EE17_M_realloc_insertIJS5_EEEvN9__gnu_cxx17__normal_iteratorIPS5_S7_EEDpOT_ W
_ZNSt6vectorISt4pairIbN4Sass10SharedImplINS1_5BlockEEEESaIS5_EED1Ev W
_ZNSt6vectorISt4pairIbN4Sass10SharedImplINS1_5BlockEEEESaIS5_EED2Ev W
_ZNSt6vectorISt4pairINSt7__cxx1112basic_stringIcSt11char_traitsIcESaIcEEEN4Sass10SharedImplINS7_13Function_CallEEEESaISB_EE12emplace_backIJSB_EEEvDpOT_ W
_ZNSt6vectorISt4pairINSt7__cxx1112basic_stringIcSt11char_traitsIcESaIcEEEN4Sass10SharedImplINS7_13Function_CallEEEESaISB_EE17_M_realloc_insertIJSB_EEEvN9__gnu_cxx17__normal_iteratorIPSB_SD_EEDpOT_ W
_ZNSt6vectorISt4pairINSt7__cxx1112basic_stringIcSt11char_traitsIcESaIcEEEN4Sass10SharedImplINS7_13Function_CallEEEESaISB_EED1Ev W
_ZNSt6vectorISt4pairINSt7__cxx1112basic_stringIcSt11char_traitsIcESaIcEEEN4Sass10SharedImplINS7_13Function_CallEEEESaISB_EED2Ev W
_ZNSt7__cxx1112basic_stringIcSt11char_traitsIcESaIcEE12_M_constructIPcEEvT_S7_St20forward_iterator_tag W
_ZNSt7__cxx1112basic_stringIcSt11char_traitsIcESaIcEE12_M_constructIPKcEEvT_S8_St20forward_iterator_tag W
_ZNSt7__cxx1115basic_stringbufIcSt11char_traitsIcESaIcEED0Ev W
_ZNSt7__cxx1115basic_stringbufIcSt11char_traitsIcESaIcEED1Ev W
_ZNSt7__cxx1115basic_stringbufIcSt11char_traitsIcESaIcEED2Ev W
_ZNSt8__detail9_Map_baseIN4Sass10SharedImplINS1_10ExpressionEEESt4pairIKS4_S4_ESaIS7_ENS_10_Select1stENS1_11ObjEqualityENS1_7ObjHashENS_18_Mod_range_hashingENS_20_Default_ranged_hashENS_20_Prime_rehash_policyENS_17_Hashtable_traitsILb1ELb0ELb1EEELb1EEixERS6_ W
_ZNSt8__detail9_Map_baseIN4Sass10SharedImplINS1_12SelectorListEEESt4pairIKS4_NS2_INS1_12CssMediaRuleEEEESaIS9_ENS_10_Select1stENS1_14ObjPtrEqualityENS1_10ObjPtrHashENS_18_Mod_range_hashingENS_20_Default_ranged_hashENS_20_Prime_rehash_policyENS_17_Hashtable_traitsILb1ELb0ELb1EEELb1EEixERS6_ W
_ZNSt8__detail9_Map_baseIN4Sass10SharedImplINS1_14SimpleSelectorEEESt4pairIKS4_NS1_11ordered_mapINS2_INS1_15ComplexSelectorEEENS1_9ExtensionENS1_7ObjHashENS1_11ObjEqualityESaIS5_IKS9_SA_EEEEESaISH_ENS_10_Select1stESC_SB_NS_18_Mod_range_hashingENS_20_Default_ranged_hashENS_20_Prime_rehash_policyENS_17_Hashtable_traitsILb1ELb0ELb1EEELb1EEixERS6_ W
_ZNSt8__detail9_Map_baseIN4Sass10SharedImplINS1_14SimpleSelectorEEESt4pairIKS4_St13unordered_setINS2_INS1_12SelectorListEEENS1_10ObjPtrHashENS1_14ObjPtrEqualityESaIS9_EEESaISE_ENS_10_Select1stENS1_11ObjEqualityENS1_7ObjHashENS_18_Mod_range_hashingENS_20_Default_ranged_hashENS_20_Prime_rehash_policyENS_17_Hashtable_traitsILb1ELb0ELb1EEELb1EEixERS6_ W
_ZNSt8__detail9_Map_baseIN4Sass10SharedImplINS1_15ComplexSelectorEEESt4pairIKS4_NS1_9ExtensionEESaIS8_ENS_10_Select1stENS1_11ObjEqualityENS1_7ObjHashENS_18_Mod_range_hashingENS_20_Default_ranged_hashENS_20_Prime_rehash_policyENS_17_Hashtable_traitsILb1ELb0ELb1EEELb1EEixERS6_ W
_ZNSt8_Rb_treeIKNSt7__cxx1112basic_stringIcSt11char_traitsIcESaIcEEESt4pairIS6_N4Sass10StyleSheetEESt10_Select1stISA_ESt4lessIS6_ESaISA_EE17_M_emplace_uniqueIJRSA_EEES7_ISt17_Rb_tree_iteratorISA_EbEDpOT_ W
_ZNSt8_Rb_treeIKNSt7__cxx1112basic_stringIcSt11char_traitsIcESaIcEEESt4pairIS6_N4Sass10StyleSheetEESt10_Select1stISA_ESt4lessIS6_ESaISA_EE8_M_eraseEPSt13_Rb_tree_nodeISA_E W
_ZNSt8_Rb_treeINSt7__cxx1112basic_stringIcSt11char_traitsIcESaIcEEESt4pairIKS5_iESt10_Select1stIS8_ESt4lessIS5_ESaIS8_EE22_M_emplace_hint_uniqueIJRKSt21piecewise_construct_tSt5tupleIJRS7_EESJ_IJEEEEESt17_Rb_tree_iteratorIS8_ESt23_Rb_tree_const_iteratorIS8_EDpOT_ W
_ZNSt8_Rb_treeINSt7__cxx1112basic_stringIcSt11char_traitsIcESaIcEEESt4pairIKS5_iESt10_Select1stIS8_ESt4lessIS5_ESaIS8_EE24_M_get_insert_unique_posERS7_ W
_ZNSt8_Rb_treeINSt7__cxx1112basic_stringIcSt11char_traitsIcESaIcEEESt4pairIKS5_iESt10_Select1stIS8_ESt4lessIS5_ESaIS8_EE29_M_get_insert_hint_unique_posESt23_Rb_tree_const_iteratorIS8_ERS7_ W
_ZNSt8_Rb_treeINSt7__cxx1112basic_stringIcSt11char_traitsIcESaIcEEESt4pairIKS5_iESt10_Select1stIS8_ESt4lessIS5_ESaIS8_EE8_M_eraseEPSt13_Rb_tree_nodeIS8_E W
_ZNSt8_Rb_treeINSt7__cxx1112basic_stringIcSt11char_traitsIcESaIcEEESt4pairIKS5_N4Sass10SharedImplINS8_8AST_NodeEEEESt10_Select1stISC_ESt4lessIS5_ESaISC_EE11equal_rangeERS7_ W
_ZNSt8_Rb_treeINSt7__cxx1112basic_stringIcSt11char_traitsIcESaIcEEESt4pairIKS5_N4Sass10SharedImplINS8_8AST_NodeEEEESt10_Select1stISC_ESt4lessIS5_ESaISC_EE22_M_emplace_hint_uniqueIJRKSt21piecewise_construct_tSt5tupleIJOS5_EESN_IJEEEEESt17_Rb_tree_iteratorISC_ESt23_Rb_tree_const_iteratorISC_EDpOT_ W
_ZNSt8_Rb_treeINSt7__cxx1112basic_stringIcSt11char_traitsIcESaIcEEESt4pairIKS5_N4Sass10SharedImplINS8_8AST_NodeEEEESt10_Select1stISC_ESt4lessIS5_ESaISC_EE22_M_emplace_hint_uniqueIJRKSt21piecewise_construct_tSt5tupleIJRS7_EESN_IJEEEEESt17_Rb_tree_iteratorISC_ESt23_Rb_tree_const_iteratorISC_EDpOT_ W
_ZNSt8_Rb_treeINSt7__cxx1112basic_stringIcSt11char_traitsIcESaIcEEESt4pairIKS5_N4Sass10SharedImplINS8_8AST_NodeEEEESt10_Select1stISC_ESt4lessIS5_ESaISC_EE24_M_get_insert_unique_posERS7_ W
_ZNSt8_Rb_treeINSt7__cxx1112basic_stringIcSt11char_traitsIcESaIcEEESt4pairIKS5_N4Sass10SharedImplINS8_8AST_NodeEEEESt10_Select1stISC_ESt4lessIS5_ESaISC_EE29_M_get_insert_hint_unique_posESt23_Rb_tree_const_iteratorISC_ERS7_ W
_ZNSt8_Rb_treeINSt7__cxx1112basic_stringIcSt11char_traitsIcESaIcEEESt4pairIKS5_N4Sass10SharedImplINS8_8AST_NodeEEEESt10_Select1stISC_ESt4lessIS5_ESaISC_EE5eraseERS7_ W
_ZNSt8_Rb_treeINSt7__cxx1112basic_stringIcSt11char_traitsIcESaIcEEESt4pairIKS5_N4Sass10SharedImplINS8_8AST_NodeEEEESt10_Select1stISC_ESt4lessIS5_ESaISC_EE8_M_eraseEPSt13_Rb_tree_nodeISC_E W
_ZNSt8_Rb_treeINSt7__cxx1112basic_stringIcSt11char_traitsIcESaIcEEESt4pairIKS5_N4Sass10SharedImplINS8_9ParameterEEEESt10_Select1stISC_ESt4lessIS5_ESaISC_EE22_M_emplace_hint_uniqueIJRKSt21piecewise_construct_tSt5tupleIJRS7_EESN_IJEEEEESt17_Rb_tree_iteratorISC_ESt23_Rb_tree_const_iteratorISC_EDpOT_ W
_ZNSt8_Rb_treeINSt7__cxx1112basic_stringIcSt11char_traitsIcESaIcEEESt4pairIKS5_N4Sass10SharedImplINS8_9ParameterEEEESt10_Select1stISC_ESt4lessIS5_ESaISC_EE24_M_get_insert_unique_posERS7_ W
_ZNSt8_Rb_treeINSt7__cxx1112basic_stringIcSt11char_traitsIcESaIcEEESt4pairIKS5_N4Sass10SharedImplINS8_9ParameterEEEESt10_Select1stISC_ESt4lessIS5_ESaISC_EE29_M_get_insert_hint_unique_posESt23_Rb_tree_const_iteratorISC_ERS7_ W
_ZNSt8_Rb_treeINSt7__cxx1112basic_stringIcSt11char_traitsIcESaIcEEESt4pairIKS5_N4Sass10SharedImplINS8_9ParameterEEEESt10_Select1stISC_ESt4lessIS5_ESaISC_EE8_M_eraseEPSt13_Rb_tree_nodeISC_E W
_ZSt11__make_heapIN9__gnu_cxx17__normal_iteratorIPN4Sass10SharedImplINS2_14SimpleSelectorEEESt6vectorIS5_SaIS5_EEEENS0_5__ops15_Iter_comp_iterIPFbPS4_SD_EEEEvT_SH_RT0_ W
_ZSt11__make_heapIN9__gnu_cxx17__normal_iteratorIPNSt7__cxx1112basic_stringIcSt11char_traitsIcESaIcEEESt6vectorIS7_SaIS7_EEEENS0_5__ops15_Iter_less_iterEEvT_SF_RT0_ W
_ZSt13__adjust_heapIN9__gnu_cxx17__normal_iteratorIPN4Sass10SharedImplINS2_14SimpleSelectorEEESt6vectorIS5_SaIS5_EEEElS5_NS0_5__ops15_Iter_comp_iterIPFbPS4_SD_EEEEvT_T0_SI_T1_T2_ W
_ZSt13__adjust_heapIN9__gnu_cxx17__normal_iteratorIPNSt7__cxx1112basic_stringIcSt11char_traitsIcESaIcEEESt6vectorIS7_SaIS7_EEEElS7_NS0_5__ops15_Iter_less_iterEEvT_T0_SG_T1_T2_ W
_ZSt13__adjust_heapIN9__gnu_cxx17__normal_iteratorIPP13Sass_ImporterSt6vectorIS3_SaIS3_EEEElS3_NS0_5__ops15_Iter_comp_iterIPFbRKS3_SC_EEEEvT_T0_SH_T1_T2_ W
_ZSt16__insertion_sortIN9__gnu_cxx17__normal_iteratorIPN4Sass10SharedImplINS2_14SimpleSelectorEEESt6vectorIS5_SaIS5_EEEENS0_5__ops15_Iter_comp_iterIPFbPS4_SD_EEEEvT_SH_T0_ W
_ZSt16__insertion_sortIN9__gnu_cxx17__normal_iteratorIPNSt7__cxx1112basic_stringIcSt11char_traitsIcESaIcEEESt6vectorIS7_SaIS7_EEEENS0_5__ops15_Iter_less_iterEEvT_SF_T0_ W
_ZSt16__insertion_sortIN9__gnu_cxx17__normal_iteratorIPP13Sass_ImporterSt6vectorIS3_SaIS3_EEEENS0_5__ops15_Iter_comp_iterIPFbRKS3_SC_EEEEvT_SG_T0_ W
_ZSt16__introsort_loopIN9__gnu_cxx17__normal_iteratorIPN4Sass10SharedImplINS2_14SimpleSelectorEEESt6vectorIS5_SaIS5_EEEElNS0_5__ops15_Iter_comp_iterIPFbPS4_SD_EEEEvT_SH_T0_T1_ W
_ZSt16__introsort_loopIN9__gnu_cxx17__normal_iteratorIPP13Sass_ImporterSt6vectorIS3_SaIS3_EEEElNS0_5__ops15_Iter_comp_iterIPFbRKS3_SC_EEEEvT_SG_T0_T1_ W
_ZSt18generate_canonicalIdLm53ESt23mersenne_twister_engineImLm32ELm624ELm397ELm31ELm2567483615ELm11ELm4294967295ELm7ELm2636928640ELm15ELm4022730752ELm18ELm1812433253EEET_RT1_ W
_ZSt22__final_insertion_sortIN9__gnu_cxx17__normal_iteratorIPNSt7__cxx1112basic_stringIcSt11char_traitsIcESaIcEEESt6vectorIS7_SaIS7_EEEENS0_5__ops15_Iter_less_iterEEvT_SF_T0_ W
_ZSt22__final_insertion_sortIN9__gnu_cxx17__normal_iteratorIPP13Sass_ImporterSt6vectorIS3_SaIS3_EEEENS0_5__ops15_Iter_comp_iterIPFbRKS3_SC_EEEEvT_SG_T0_ W
_ZSt25__unguarded_linear_insertIN9__gnu_cxx17__normal_iteratorIPN4Sass10SharedImplINS2_14SimpleSelectorEEESt6vectorIS5_SaIS5_EEEENS0_5__ops14_Val_comp_iterIPFbPS4_SD_EEEEvT_T0_ W
_ZSt25__unguarded_linear_insertIN9__gnu_cxx17__normal_iteratorIPNSt7__cxx1112basic_stringIcSt11char_traitsIcESaIcEEESt6vectorIS7_SaIS7_EEEENS0_5__ops14_Val_less_iterEEvT_T0_ W
_ZSt30__lexicographical_compare_implIPKNSt7__cxx1112basic_stringIcSt11char_traitsIcESaIcEEES7_N9__gnu_cxx5__ops15_Iter_less_iterEEbT_SB_T0_SC_T1_ W
_ZSt4swapIN4Sass10SharedImplINS0_14SimpleSelectorEEEENSt9enable_ifIXsrSt6__and_IJSt6__not_ISt15__is_tuple_likeIT_EESt21is_move_constructibleIS8_ESt18is_move_assignableIS8_EEE5valueEvE4typeERS8_SI_ W
_ZSt8__uniqueIN9__gnu_cxx17__normal_iteratorIPNSt7__cxx1112basic_stringIcSt11char_traitsIcESaIcEEESt6vectorIS7_SaIS7_EEEENS0_5__ops19_Iter_equal_to_iterEET_SF_SF_T0_ W
_ZSt9__find_ifIN9__gnu_cxx17__normal_iteratorIPKNSt7__cxx1112basic_stringIcSt11char_traitsIcESaIcEEESt6vectorIS7_SaIS7_EEEENS0_5__ops16_Iter_equals_valIS8_EEET_SH_SH_T0_St26random_access_iterator_tag W
_ZSt9__find_ifIN9__gnu_cxx17__normal_iteratorIPN4Sass10SharedImplINS2_14SimpleSelectorEEESt6vectorIS5_SaIS5_EEEENS0_5__ops10_Iter_predIPFbPS4_EEEET_SH_SH_T0_St26random_access_iterator_tag W
_ZSt9__find_ifIN9__gnu_cxx17__normal_iteratorIPN4Sass10SharedImplINS2_15ComplexSelectorEEESt6vectorIS5_SaIS5_EEEENS0_5__ops10_Iter_predIPFbPS4_EEEET_SH_SH_T0_St26random_access_iterator_tag W
_ZSt9__find_ifIN9__gnu_cxx17__normal_iteratorIPN4Sass10SharedImplINS2_17SelectorComponentEEESt6vectorIS5_SaIS5_EEEENS0_5__ops10_Iter_predIPFbPS4_EEEET_SH_SH_T0_St26random_access_iterator_tag W
_ZSt9__find_ifIN9__gnu_cxx17__normal_iteratorIPSt6vectorIS2_IN4Sass10SharedImplINS3_17SelectorComponentEEESaIS6_EESaIS8_EES2_ISA_SaISA_EEEENS0_5__ops10_Iter_predIPFbRKSA_EEEET_SM_SM_T0_St26random_access_iterator_tag W
_ZSteqIcEN9__gnu_cxx11__enable_ifIXsrSt9__is_charIT_E7__valueEbE6__typeERKNSt7__cxx1112basic_stringIS3_St11char_traitsIS3_ESaIS3_EEESE_ W
_ZStplIcSt11char_traitsIcESaIcEENSt7__cxx1112basic_stringIT_T0_T1_EEOS8_PKS5_ W
_ZStplIcSt11char_traitsIcESaIcEENSt7__cxx1112basic_stringIT_T0_T1_EEOS8_S9_ W
_ZStplIcSt11char_traitsIcESaIcEENSt7__cxx1112basic_stringIT_T0_T1_EEPKS5_OS8_ W
_ZStplIcSt11char_traitsIcESaIcEENSt7__cxx1112basic_stringIT_T0_T1_EEPKS5_RKS8_ W
_ZStplIcSt11char_traitsIcESaIcEENSt7__cxx1112basic_stringIT_T0_T1_EERKS8_SA_ W
_ZThn64_N4Sass10Parameters20adjust_after_pushingENS_10SharedImplINS_9ParameterEEE T
_ZThn64_N4Sass10ParametersD0Ev W
_ZThn64_N4Sass10ParametersD1Ev W
_ZThn72_N4Sass11Media_QueryD0Ev W
_ZThn72_N4Sass11Media_QueryD1Ev W
_ZThn72_N4Sass13String_SchemaD0Ev W
_ZThn72_N4Sass13String_SchemaD1Ev W
_ZThn72_N4Sass3Map20adjust_after_pushingESt4pairINS_10SharedImplINS_10ExpressionEEES4_E W
_ZThn72_N4Sass3MapD0Ev W
_ZThn72_N4Sass3MapD1Ev W
_ZThn72_N4Sass4List20adjust_after_pushingENS_10SharedImplINS_10ExpressionEEE W
_ZThn72_N4Sass4ListD0Ev W
_ZThn72_N4Sass4ListD1Ev W
_ZThn72_N4Sass9Arguments20adjust_after_pushingENS_10SharedImplINS_8ArgumentEEE T
_ZThn72_N4Sass9ArgumentsD0Ev W
_ZThn72_N4Sass9ArgumentsD1Ev W
_ZThn72_NK4Sass13String_Schema4hashEv T
_ZThn72_NK4Sass4List4hashEv T
_ZThn80_N4Sass12SelectorListD0Ev W
_ZThn80_N4Sass12SelectorListD1Ev W
_ZThn80_N4Sass15ComplexSelectorD0Ev W
_ZThn80_N4Sass15ComplexSelectorD1Ev W
_ZThn80_NK4Sass12SelectorList4hashEv T
_ZThn80_NK4Sass15ComplexSelector4hashEv T
_ZThn88_N4Sass16CompoundSelectorD0Ev W
_ZThn88_N4Sass16CompoundSelectorD1Ev W
_ZThn88_N4Sass5Block20adjust_after_pushingENS_10SharedImplINS_9StatementEEE W
_ZThn88_N4Sass5BlockD0Ev W
_ZThn88_N4Sass5BlockD1Ev W
_ZThn88_NK4Sass16CompoundSelector4hashEv T
_ZThn8_N4Sass6OutputD0Ev T
_ZThn8_N4Sass6OutputD1Ev T
_ZThn8_N4Sass7InspectD0Ev T
_ZThn8_N4Sass7InspectD1Ev T
_ZThn96_N4Sass12CssMediaRuleD0Ev W
_ZThn96_N4Sass12CssMediaRuleD1Ev W
_ZThn96_NK4Sass12CssMediaRule4hashEv W
_ZTIN4Sass10AssignmentE V
_ZTIN4Sass10AtRootRuleE V
_ZTIN4Sass10Color_HSLAE V
_ZTIN4Sass10Color_RGBAE V
_ZTIN4Sass10DefinitionE V
_ZTIN4Sass10ExpressionE V
_ZTIN4Sass10ExtendRuleE V
_ZTIN4Sass10IDSelectorE V
_ZTIN4Sass10Mixin_CallE V
_ZTIN4Sass10ParametersE V
_ZTIN4Sass10SourceDataE V
_ZTIN4Sass10SourceFileE V
_ZTIN4Sass10VectorizedINS_10SharedImplINS_10ExpressionEEEEE V
_ZTIN4Sass10VectorizedINS_10SharedImplINS_13CssMediaQueryEEEEE V
_ZTIN4Sass10VectorizedINS_10SharedImplINS_14SimpleSelectorEEEEE V
_ZTIN4Sass10VectorizedINS_10SharedImplINS_15ComplexSelectorEEEEE V
_ZTIN4Sass10VectorizedINS_10SharedImplINS_17SelectorComponentEEEEE V
_ZTIN4Sass10VectorizedINS_10SharedImplINS_22Media_Query_ExpressionEEEEE V
_ZTIN4Sass10VectorizedINS_10SharedImplINS_8ArgumentEEEEE V
_ZTIN4Sass10VectorizedINS_10SharedImplINS_8PreValueEEEEE V
_ZTIN4Sass10VectorizedINS_10SharedImplINS_9ParameterEEEEE V
_ZTIN4Sass10VectorizedINS_10SharedImplINS_9StatementEEEEE V
_ZTIN4Sass11DeclarationE V
_ZTIN4Sass11Import_StubE V
_ZTIN4Sass11Media_QueryE V
_ZTIN4Sass11WarningRuleE V
_ZTIN4Sass12CheckNestingE V
_ZTIN4Sass12CssMediaRuleE V
_ZTIN4Sass12Custom_ErrorE V
_ZTIN4Sass12Data_ContextE V
_ZTIN4Sass12File_ContextE V
_ZTIN4Sass12SelectorListE V
_ZTIN4Sass12SupportsRuleE V
_ZTIN4Sass12TypeSelectorE V
_ZTIN4Sass13At_Root_QueryE V
_ZTIN4Sass13ClassSelectorE V
_ZTIN4Sass13CssMediaQueryE V
_ZTIN4Sass13Function_CallE V
_ZTIN4Sass13Keyframe_RuleE V
_ZTIN4Sass13String_QuotedE V
_ZTIN4Sass13String_SchemaE V
_ZTIN4Sass14Custom_WarningE V
_ZTIN4Sass14Operation_CRTPIP10Sass_ValueNS_5AST2CEEE V
_ZTIN4Sass14Operation_CRTPIPNS_10ExpressionENS_4EvalEEE V
_ZTIN4Sass14Operation_CRTPIPNS_10ExpressionENS_7ListizeEEE V
_ZTIN4Sass14Operation_CRTPIPNS_5ValueENS_8To_ValueEEE V
_ZTIN4Sass14Operation_CRTPIPNS_9StatementENS_12CheckNestingEEE V
_ZTIN4Sass14Operation_CRTPIPNS_9StatementENS_6CssizeEEE V
_ZTIN4Sass14Operation_CRTPIPNS_9StatementENS_6ExpandEEE V
_ZTIN4Sass14Operation_CRTPIvNS_19Remove_PlaceholdersEEE V
_ZTIN4Sass14Operation_CRTPIvNS_7InspectEEE V
_ZTIN4Sass14Operation_CRTPIvNS_8ExtenderEEE V
_ZTIN4Sass14PseudoSelectorE V
_ZTIN4Sass14SimpleSelectorE V
_ZTIN4Sass15ComplexSelectorE V
_ZTIN4Sass15ParentStatementE V
_ZTIN4Sass15Selector_SchemaE V
_ZTIN4Sass15String_ConstantE V
_ZTIN4Sass16CompoundSelectorE V
_ZTIN4Sass16Parent_ReferenceE V
_ZTIN4Sass16SupportsNegationE V
_ZTIN4Sass16Unary_ExpressionE V
_ZTIN4Sass17AttributeSelectorE V
_ZTIN4Sass17Binary_ExpressionE V
_ZTIN4Sass17SelectorComponentE V
_ZTIN4Sass17SupportsConditionE V
_ZTIN4Sass17SupportsOperationE V
_ZTIN4Sass18SelectorCombinatorE V
_ZTIN4Sass19PlaceholderSelectorE V
_ZTIN4Sass19Remove_PlaceholdersE V
_ZTIN4Sass19SupportsDeclarationE V
_ZTIN4Sass22Media_Query_ExpressionE V
_ZTIN4Sass22Supports_InterpolationE V
_ZTIN4Sass2IfE V
_ZTIN4Sass3MapE V
_ZTIN4Sass4EvalE V
_ZTIN4Sass4ListE V
_ZTIN4Sass4NullE V
_ZTIN4Sass5AST2CE V
_ZTIN4Sass5BlockE V
_ZTIN4Sass5ColorE V
_ZTIN4Sass5TraceE V
_ZTIN4Sass5UnitsE V
_ZTIN4Sass5ValueE V
_ZTIN4Sass6AtRuleE V
_ZTIN4Sass6BubbleE V
_ZTIN4Sass6CssizeE V
_ZTIN4Sass6ExpandE V
_ZTIN4Sass6HashedINS_10SharedImplINS_10ExpressionEEES3_NS1_INS_3MapEEEEE V
_ZTIN4Sass6ImportE V
_ZTIN4Sass6NumberE V
_ZTIN4Sass6OutputE V
_ZTIN4Sass6ReturnE V
_ZTIN4Sass6StringE V
_ZTIN4Sass7BooleanE V
_ZTIN4Sass7CommentE V
_ZTIN4Sass7ContentE V
_ZTIN4Sass7ContextE V
_ZTIN4Sass7EmitterE V
_ZTIN4Sass7ForRuleE V
_ZTIN4Sass7InspectE V
_ZTIN4Sass7ListizeE V
_ZTIN4Sass8ArgumentE V
_ZTIN4Sass8AST_NodeE V
_ZTIN4Sass8EachRuleE V
_ZTIN4Sass8ExtenderE V
_ZTIN4Sass8FunctionE V
_ZTIN4Sass8ItplFileE V
_ZTIN4Sass8PreValueE V
_ZTIN4Sass8SelectorE V
_ZTIN4Sass8To_ValueE V
_ZTIN4Sass8VariableE V
_ZTIN4Sass9ArgumentsE V
_ZTIN4Sass9DebugRuleE V
_ZTIN4Sass9ErrorRuleE V
_ZTIN4Sass9Exception10StackErrorE V
_ZTIN4Sass9Exception11InvalidSassE V
_ZTIN4Sass9Exception12InvalidValueE V
_ZTIN4Sass9Exception12TypeMismatchE V
_ZTIN4Sass9Exception13InvalidParentE V
_ZTIN4Sass9Exception13InvalidSyntaxE V
_ZTIN4Sass9Exception14OperationErrorE V
_ZTIN4Sass9Exception14SassValueErrorE V
_ZTIN4Sass9Exception14TopLevelParentE V
_ZTIN4Sass9Exception15MissingArgumentE V
_ZTIN4Sass9Exception17DuplicateKeyErrorE V
_ZTIN4Sass9Exception17ExtendAcrossMediaE V
_ZTIN4Sass9Exception17IncompatibleUnitsE V
_ZTIN4Sass9Exception17InvalidVarKwdTypeE V
_ZTIN4Sass9Exception17NestingLimitErrorE V
_ZTIN4Sass9Exception17UnsatisfiedExtendE V
_ZTIN4Sass9Exception17ZeroDivisionErrorE V
_ZTIN4Sass9Exception18UndefinedOperationE V
_ZTIN4Sass9Exception19InvalidArgumentTypeE V
_ZTIN4Sass9Exception20InvalidNullOperationE V
_ZTIN4Sass9Exception21AlphaChannelsNotEqualE V
_ZTIN4Sass9Exception4BaseE V
_ZTIN4Sass9MediaRuleE V
_ZTIN4Sass9OperationIP10Sass_ValueEE V
_ZTIN4Sass9OperationIPNS_10ExpressionEEE V
_ZTIN4Sass9OperationIPNS_5ValueEEE V
_ZTIN4Sass9OperationIPNS_9StatementEEE V
_ZTIN4Sass9OperationIvEE V
_ZTIN4Sass9ParameterE V
_ZTIN4Sass9SharedObjE V
_ZTIN4Sass9StatementE V
_ZTIN4Sass9StyleRuleE V
_ZTIN4Sass9SynthFileE V
_ZTIN4Sass9WhileRuleE V
_ZTIN4utf812invalid_utf8E V
_ZTIN4utf815not_enough_roomE V
_ZTIN4utf818invalid_code_pointE V
_ZTIN4utf89exceptionE V
_ZTINSt7__cxx1112basic_stringIcSt11char_traitsIcESaIcEEE V
_ZTSN4Sass10AssignmentE V
_ZTSN4Sass10AtRootRuleE V
_ZTSN4Sass10Color_HSLAE V
_ZTSN4Sass10Color_RGBAE V
_ZTSN4Sass10DefinitionE V
_ZTSN4Sass10ExpressionE V
_ZTSN4Sass10ExtendRuleE V
_ZTSN4Sass10IDSelectorE V
_ZTSN4Sass10Mixin_CallE V
_ZTSN4Sass10ParametersE V
_ZTSN4Sass10SourceDataE V
_ZTSN4Sass10SourceFileE V
_ZTSN4Sass10VectorizedINS_10SharedImplINS_10ExpressionEEEEE V
_ZTSN4Sass10VectorizedINS_10SharedImplINS_13CssMediaQueryEEEEE V
_ZTSN4Sass10VectorizedINS_10SharedImplINS_14SimpleSelectorEEEEE V
_ZTSN4Sass10VectorizedINS_10SharedImplINS_15ComplexSelectorEEEEE V
_ZTSN4Sass10VectorizedINS_10SharedImplINS_17SelectorComponentEEEEE V
_ZTSN4Sass10VectorizedINS_10SharedImplINS_22Media_Query_ExpressionEEEEE V
_ZTSN4Sass10VectorizedINS_10SharedImplINS_8ArgumentEEEEE V
_ZTSN4Sass10VectorizedINS_10SharedImplINS_8PreValueEEEEE V
_ZTSN4Sass10VectorizedINS_10SharedImplINS_9ParameterEEEEE V
_ZTSN4Sass10VectorizedINS_10SharedImplINS_9StatementEEEEE V
_ZTSN4Sass11DeclarationE V
_ZTSN4Sass11Import_StubE V
_ZTSN4Sass11Media_QueryE V
_ZTSN4Sass11WarningRuleE V
_ZTSN4Sass12CheckNestingE V
_ZTSN4Sass12CssMediaRuleE V
_ZTSN4Sass12Custom_ErrorE V
_ZTSN4Sass12Data_ContextE V
_ZTSN4Sass12File_ContextE V
_ZTSN4Sass12SelectorListE V
_ZTSN4Sass12SupportsRuleE V
_ZTSN4Sass12TypeSelectorE V
_ZTSN4Sass13At_Root_QueryE V
_ZTSN4Sass13ClassSelectorE V
_ZTSN4Sass13CssMediaQueryE V
_ZTSN4Sass13Function_CallE V
_ZTSN4Sass13Keyframe_RuleE V
_ZTSN4Sass13String_QuotedE V
_ZTSN4Sass13String_SchemaE V
_ZTSN4Sass14Custom_WarningE V
_ZTSN4Sass14Operation_CRTPIP10Sass_ValueNS_5AST2CEEE V
_ZTSN4Sass14Operation_CRTPIPNS_10ExpressionENS_4EvalEEE V
_ZTSN4Sass14Operation_CRTPIPNS_10ExpressionENS_7ListizeEEE V
_ZTSN4Sass14Operation_CRTPIPNS_5ValueENS_8To_ValueEEE V
_ZTSN4Sass14Operation_CRTPIPNS_9StatementENS_12CheckNestingEEE V
_ZTSN4Sass14Operation_CRTPIPNS_9StatementENS_6CssizeEEE V
_ZTSN4Sass14Operation_CRTPIPNS_9StatementENS_6ExpandEEE V
_ZTSN4Sass14Operation_CRTPIvNS_19Remove_PlaceholdersEEE V
_ZTSN4Sass14Operation_CRTPIvNS_7InspectEEE V
_ZTSN4Sass14Operation_CRTPIvNS_8ExtenderEEE V
_ZTSN4Sass14PseudoSelectorE V
_ZTSN4Sass14SimpleSelectorE V
_ZTSN4Sass15ComplexSelectorE V
_ZTSN4Sass15ParentStatementE V
_ZTSN4Sass15Selector_SchemaE V
_ZTSN4Sass15String_ConstantE V
_ZTSN4Sass16CompoundSelectorE V
_ZTSN4Sass16Parent_ReferenceE V
_ZTSN4Sass16SupportsNegationE V
_ZTSN4Sass16Unary_ExpressionE V
_ZTSN4Sass17AttributeSelectorE V
_ZTSN4Sass17Binary_ExpressionE V
_ZTSN4Sass17SelectorComponentE V
_ZTSN4Sass17SupportsConditionE V
_ZTSN4Sass17SupportsOperationE V
_ZTSN4Sass18SelectorCombinatorE V
_ZTSN4Sass19PlaceholderSelectorE V
_ZTSN4Sass19Remove_PlaceholdersE V
_ZTSN4Sass19SupportsDeclarationE V
_ZTSN4Sass22Media_Query_ExpressionE V
_ZTSN4Sass22Supports_InterpolationE V
_ZTSN4Sass2IfE V
_ZTSN4Sass3MapE V
_ZTSN4Sass4EvalE V
_ZTSN4Sass4ListE V
_ZTSN4Sass4NullE V
_ZTSN4Sass5AST2CE V
_ZTSN4Sass5BlockE V
_ZTSN4Sass5ColorE V
_ZTSN4Sass5TraceE V
_ZTSN4Sass5UnitsE V
_ZTSN4Sass5ValueE V
_ZTSN4Sass6AtRuleE V
_ZTSN4Sass6BubbleE V
_ZTSN4Sass6CssizeE V
_ZTSN4Sass6ExpandE V
_ZTSN4Sass6HashedINS_10SharedImplINS_10ExpressionEEES3_NS1_INS_3MapEEEEE V
_ZTSN4Sass6ImportE V
_ZTSN4Sass6NumberE V
_ZTSN4Sass6OutputE V
_ZTSN4Sass6ReturnE V
_ZTSN4Sass6StringE V
_ZTSN4Sass7BooleanE V
_ZTSN4Sass7CommentE V
_ZTSN4Sass7ContentE V
_ZTSN4Sass7ContextE V
_ZTSN4Sass7EmitterE V
_ZTSN4Sass7ForRuleE V
_ZTSN4Sass7InspectE V
_ZTSN4Sass7ListizeE V
_ZTSN4Sass8ArgumentE V
_ZTSN4Sass8AST_NodeE V
_ZTSN4Sass8EachRuleE V
_ZTSN4Sass8ExtenderE V
_ZTSN4Sass8FunctionE V
_ZTSN4Sass8ItplFileE V
_ZTSN4Sass8PreValueE V
_ZTSN4Sass8SelectorE V
_ZTSN4Sass8To_ValueE V
_ZTSN4Sass8VariableE V
_ZTSN4Sass9ArgumentsE V
_ZTSN4Sass9DebugRuleE V
_ZTSN4Sass9ErrorRuleE V
_ZTSN4Sass9Exception10StackErrorE V
_ZTSN4Sass9Exception11InvalidSassE V
_ZTSN4Sass9Exception12InvalidValueE V
_ZTSN4Sass9Exception12TypeMismatchE V
_ZTSN4Sass9Exception13InvalidParentE V
_ZTSN4Sass9Exception13InvalidSyntaxE V
_ZTSN4Sass9Exception14OperationErrorE V
_ZTSN4Sass9Exception14SassValueErrorE V
_ZTSN4Sass9Exception14TopLevelParentE V
_ZTSN4Sass9Exception15MissingArgumentE V
_ZTSN4Sass9Exception17DuplicateKeyErrorE V
_ZTSN4Sass9Exception17ExtendAcrossMediaE V
_ZTSN4Sass9Exception17IncompatibleUnitsE V
_ZTSN4Sass9Exception17InvalidVarKwdTypeE V
_ZTSN4Sass9Exception17NestingLimitErrorE V
_ZTSN4Sass9Exception17UnsatisfiedExtendE V
_ZTSN4Sass9Exception17ZeroDivisionErrorE V
_ZTSN4Sass9Exception18UndefinedOperationE V
_ZTSN4Sass9Exception19InvalidArgumentTypeE V
_ZTSN4Sass9Exception20InvalidNullOperationE V
_ZTSN4Sass9Exception21AlphaChannelsNotEqualE V
_ZTSN4Sass9Exception4BaseE V
_ZTSN4Sass9MediaRuleE V
_ZTSN4Sass9OperationIP10Sass_ValueEE V
_ZTSN4Sass9OperationIPNS_10ExpressionEEE V
_ZTSN4Sass9OperationIPNS_5ValueEEE V
_ZTSN4Sass9OperationIPNS_9StatementEEE V
_ZTSN4Sass9OperationIvEE V
_ZTSN4Sass9ParameterE V
_ZTSN4Sass9SharedObjE V
_ZTSN4Sass9StatementE V
_ZTSN4Sass9StyleRuleE V
_ZTSN4Sass9SynthFileE V
_ZTSN4Sass9WhileRuleE V
_ZTSN4utf812invalid_utf8E V
_ZTSN4utf815not_enough_roomE V
_ZTSN4utf818invalid_code_pointE V
_ZTSN4utf89exceptionE V
_ZTSNSt7__cxx1112basic_stringIcSt11char_traitsIcESaIcEEE V
_ZTSPN4Sass10AssignmentE V
_ZTSPN4Sass10AtRootRuleE V
_ZTSPN4Sass10Color_HSLAE V
_ZTSPN4Sass10Color_RGBAE V
_ZTSPN4Sass10DefinitionE V
_ZTSPN4Sass10ExtendRuleE V
_ZTSPN4Sass10IDSelectorE V
_ZTSPN4Sass10Mixin_CallE V
_ZTSPN4Sass10ParametersE V
_ZTSPN4Sass11DeclarationE V
_ZTSPN4Sass11Import_StubE V
_ZTSPN4Sass11Media_QueryE V
_ZTSPN4Sass11WarningRuleE V
_ZTSPN4Sass12CssMediaRuleE V
_ZTSPN4Sass12Custom_ErrorE V
_ZTSPN4Sass12SelectorListE V
_ZTSPN4Sass12SupportsRuleE V
_ZTSPN4Sass12TypeSelectorE V
_ZTSPN4Sass13At_Root_QueryE V
_ZTSPN4Sass13ClassSelectorE V
_ZTSPN4Sass13CssMediaQueryE V
_ZTSPN4Sass13Function_CallE V
_ZTSPN4Sass13Keyframe_RuleE V
_ZTSPN4Sass13String_QuotedE V
_ZTSPN4Sass13String_SchemaE V
_ZTSPN4Sass14Custom_WarningE V
_ZTSPN4Sass14PseudoSelectorE V
_ZTSPN4Sass15ComplexSelectorE V
_ZTSPN4Sass15Selector_SchemaE V
_ZTSPN4Sass15String_ConstantE V
_ZTSPN4Sass16CompoundSelectorE V
_ZTSPN4Sass16Parent_ReferenceE V
_ZTSPN4Sass16SupportsNegationE V
_ZTSPN4Sass16Unary_ExpressionE V
_ZTSPN4Sass17AttributeSelectorE V
_ZTSPN4Sass17Binary_ExpressionE V
_ZTSPN4Sass17SelectorComponentE V
_ZTSPN4Sass17SupportsConditionE V
_ZTSPN4Sass17SupportsOperationE V
_ZTSPN4Sass18SelectorCombinatorE V
_ZTSPN4Sass19PlaceholderSelectorE V
_ZTSPN4Sass19SupportsDeclarationE V
_ZTSPN4Sass22Media_Query_ExpressionE V
_ZTSPN4Sass22Supports_InterpolationE V
_ZTSPN4Sass2IfE V
_ZTSPN4Sass3MapE V
_ZTSPN4Sass4ListE V
_ZTSPN4Sass4NullE V
_ZTSPN4Sass5BlockE V
_ZTSPN4Sass5ColorE V
_ZTSPN4Sass5TraceE V
_ZTSPN4Sass6AtRuleE V
_ZTSPN4Sass6BubbleE V
_ZTSPN4Sass6ImportE V
_ZTSPN4Sass6NumberE V
_ZTSPN4Sass6ReturnE V
_ZTSPN4Sass7BooleanE V
_ZTSPN4Sass7CommentE V
_ZTSPN4Sass7ContentE V
_ZTSPN4Sass7ForRuleE V
_ZTSPN4Sass8ArgumentE V
_ZTSPN4Sass8AST_NodeE V
_ZTSPN4Sass8EachRuleE V
_ZTSPN4Sass8FunctionE V
_ZTSPN4Sass8VariableE V
_ZTSPN4Sass9ArgumentsE V
_ZTSPN4Sass9DebugRuleE V
_ZTSPN4Sass9ErrorRuleE V
_ZTSPN4Sass9MediaRuleE V
_ZTSPN4Sass9ParameterE V
_ZTSPN4Sass9StyleRuleE V
_ZTSPN4Sass9WhileRuleE V
_ZTVN4Sass10AssignmentE V
_ZTVN4Sass10AtRootRuleE V
_ZTVN4Sass10Color_HSLAE V
_ZTVN4Sass10Color_RGBAE V
_ZTVN4Sass10DefinitionE V
_ZTVN4Sass10ExpressionE V
_ZTVN4Sass10ExtendRuleE V
_ZTVN4Sass10IDSelectorE V
_ZTVN4Sass10Mixin_CallE V
_ZTVN4Sass10ParametersE V
_ZTVN4Sass10SourceDataE V
_ZTVN4Sass10SourceFileE V
_ZTVN4Sass10VectorizedINS_10SharedImplINS_10ExpressionEEEEE V
_ZTVN4Sass10VectorizedINS_10SharedImplINS_13CssMediaQueryEEEEE V
_ZTVN4Sass10VectorizedINS_10SharedImplINS_14SimpleSelectorEEEEE V
_ZTVN4Sass10VectorizedINS_10SharedImplINS_15ComplexSelectorEEEEE V
_ZTVN4Sass10VectorizedINS_10SharedImplINS_17SelectorComponentEEEEE V
_ZTVN4Sass10VectorizedINS_10SharedImplINS_22Media_Query_ExpressionEEEEE V
_ZTVN4Sass10VectorizedINS_10SharedImplINS_8ArgumentEEEEE V
_ZTVN4Sass10VectorizedINS_10SharedImplINS_8PreValueEEEEE V
_ZTVN4Sass10VectorizedINS_10SharedImplINS_9ParameterEEEEE V
_ZTVN4Sass10VectorizedINS_10SharedImplINS_9StatementEEEEE V
_ZTVN4Sass11DeclarationE V
_ZTVN4Sass11Import_StubE V
_ZTVN4Sass11Media_QueryE V
_ZTVN4Sass11WarningRuleE V
_ZTVN4Sass12CheckNestingE V
_ZTVN4Sass12CssMediaRuleE V
_ZTVN4Sass12Custom_ErrorE V
_ZTVN4Sass12Data_ContextE V
_ZTVN4Sass12File_ContextE V
_ZTVN4Sass12SelectorListE V
_ZTVN4Sass12SupportsRuleE V
_ZTVN4Sass12TypeSelectorE V
_ZTVN4Sass13At_Root_QueryE V
_ZTVN4Sass13ClassSelectorE V
_ZTVN4Sass13CssMediaQueryE V
_ZTVN4Sass13Function_CallE V
_ZTVN4Sass13Keyframe_RuleE V
_ZTVN4Sass13String_QuotedE V
_ZTVN4Sass13String_SchemaE V
_ZTVN4Sass14Custom_WarningE V
_ZTVN4Sass14Operation_CRTPIvNS_7InspectEEE V
_ZTVN4Sass14PseudoSelectorE V
_ZTVN4Sass14SimpleSelectorE V
_ZTVN4Sass15ComplexSelectorE V
_ZTVN4Sass15ParentStatementE V
_ZTVN4Sass15Selector_SchemaE V
_ZTVN4Sass15String_ConstantE V
_ZTVN4Sass16CompoundSelectorE V
_ZTVN4Sass16Parent_ReferenceE V
_ZTVN4Sass16SupportsNegationE V
_ZTVN4Sass16Unary_ExpressionE V
_ZTVN4Sass17AttributeSelectorE V
_ZTVN4Sass17Binary_ExpressionE V
_ZTVN4Sass17SelectorComponentE V
_ZTVN4Sass17SupportsConditionE V
_ZTVN4Sass17SupportsOperationE V
_ZTVN4Sass18SelectorCombinatorE V
_ZTVN4Sass19PlaceholderSelectorE V
_ZTVN4Sass19Remove_PlaceholdersE V
_ZTVN4Sass19SupportsDeclarationE V
_ZTVN4Sass22Media_Query_ExpressionE V
_ZTVN4Sass22Supports_InterpolationE V
_ZTVN4Sass2IfE V
_ZTVN4Sass3MapE V
_ZTVN4Sass4EvalE V
_ZTVN4Sass4ListE V
_ZTVN4Sass4NullE V
_ZTVN4Sass5AST2CE V
_ZTVN4Sass5BlockE V
_ZTVN4Sass5ColorE V
_ZTVN4Sass5TraceE V
_ZTVN4Sass5ValueE V
_ZTVN4Sass6AtRuleE V
_ZTVN4Sass6BubbleE V
_ZTVN4Sass6CssizeE V
_ZTVN4Sass6ExpandE V
_ZTVN4Sass6HashedINS_10SharedImplINS_10ExpressionEEES3_NS1_INS_3MapEEEEE V
_ZTVN4Sass6ImportE V
_ZTVN4Sass6NumberE V
_ZTVN4Sass6OutputE V
_ZTVN4Sass6ReturnE V
_ZTVN4Sass6StringE V
_ZTVN4Sass7BooleanE V
_ZTVN4Sass7CommentE V
_ZTVN4Sass7ContentE V
_ZTVN4Sass7ContextE V
_ZTVN4Sass7EmitterE V
_ZTVN4Sass7ForRuleE V
_ZTVN4Sass7InspectE V
_ZTVN4Sass7ListizeE V
_ZTVN4Sass8ArgumentE V
_ZTVN4Sass8AST_NodeE V
_ZTVN4Sass8EachRuleE V
_ZTVN4Sass8ExtenderE V
_ZTVN4Sass8FunctionE V
_ZTVN4Sass8ItplFileE V
_ZTVN4Sass8PreValueE V
_ZTVN4Sass8SelectorE V
_ZTVN4Sass8To_ValueE V
_ZTVN4Sass8VariableE V
_ZTVN4Sass9ArgumentsE V
_ZTVN4Sass9DebugRuleE V
_ZTVN4Sass9ErrorRuleE V
_ZTVN4Sass9Exception10StackErrorE V
_ZTVN4Sass9Exception11InvalidSassE V
_ZTVN4Sass9Exception12InvalidValueE V
_ZTVN4Sass9Exception12TypeMismatchE V
_ZTVN4Sass9Exception13InvalidParentE V
_ZTVN4Sass9Exception13InvalidSyntaxE V
_ZTVN4Sass9Exception14OperationErrorE V
_ZTVN4Sass9Exception14SassValueErrorE V
_ZTVN4Sass9Exception14TopLevelParentE V
_ZTVN4Sass9Exception15MissingArgumentE V
_ZTVN4Sass9Exception17DuplicateKeyErrorE V
_ZTVN4Sass9Exception17ExtendAcrossMediaE V
_ZTVN4Sass9Exception17IncompatibleUnitsE V
_ZTVN4Sass9Exception17InvalidVarKwdTypeE V
_ZTVN4Sass9Exception17NestingLimitErrorE V
_ZTVN4Sass9Exception17UnsatisfiedExtendE V
_ZTVN4Sass9Exception17ZeroDivisionErrorE V
_ZTVN4Sass9Exception18UndefinedOperationE V
_ZTVN4Sass9Exception19InvalidArgumentTypeE V
_ZTVN4Sass9Exception20InvalidNullOperationE V
_ZTVN4Sass9Exception21AlphaChannelsNotEqualE V
_ZTVN4Sass9Exception4BaseE V
_ZTVN4Sass9MediaRuleE V
_ZTVN4Sass9ParameterE V
_ZTVN4Sass9StatementE V
_ZTVN4Sass9StyleRuleE V
_ZTVN4Sass9SynthFileE V
_ZTVN4Sass9WhileRuleE V
_ZTVN4utf812invalid_utf8E V
_ZTVN4utf815not_enough_roomE V
_ZTVN4utf818invalid_code_pointE V
_ZTVN4utf89exceptionE V
_ZZN4utf815replace_invalidIPKcSt20back_insert_iteratorINSt7__cxx1112basic_stringIcSt11char_traitsIcESaIcEEEEEET0_T_SC_SB_E18replacement_marker u
